(dp0
S'left0.jpg'
p1
(dp2
S'yaw'
p3
cnumpy.core.multiarray
scalar
p4
(cnumpy
dtype
p5
(S'f8'
p6
I0
I1
tp7
Rp8
(I3
S'<'
p9
NNNI-1
I-1
I0
tp10
bS'\xbfv\xd2r\x0b\xd1\x08\xc0'
p11
tp12
Rp13
sS'pitch'
p14
g4
(g8
S'\xf1\x14\x11\x13\x91B\xc2\xbf'
p15
tp16
Rp17
sS'y'
p18
F0.021307706319446836
sS'x'
p19
F-0.12810063140036465
sS'z'
p20
F-0.1244679243273864
sS'roll'
p21
g4
(g8
S'\xd4C\xa1\xd1\x19\xb4\x08@'
p22
tp23
Rp24
ss.(dp0
S'left1.jpg'
p1
(dp2
S'yaw'
p3
cnumpy.core.multiarray
scalar
p4
(cnumpy
dtype
p5
(S'f8'
p6
I0
I1
tp7
Rp8
(I3
S'<'
p9
NNNI-1
I-1
I0
tp10
bS'8\xe3\xe1\x126\xbc\x08\xc0'
p11
tp12
Rp13
sS'pitch'
p14
g4
(g8
S'~\xba\xad\xe4d\x19\xc8\xbf'
p15
tp16
Rp17
sS'y'
p18
F0.023626077124164518
sS'x'
p19
F-0.13964266386094842
sS'z'
p20
F-0.1229167348166411
sS'roll'
p21
g4
(g8
S'\xb7R\x89\xbd\x19\x88\x08@'
p22
tp23
Rp24
ss.(dp0
S'left2.jpg'
p1
(dp2
S'yaw'
p3
cnumpy.core.multiarray
scalar
p4
(cnumpy
dtype
p5
(S'f8'
p6
I0
I1
tp7
Rp8
(I3
S'<'
p9
NNNI-1
I-1
I0
tp10
bS'z>\x02M([\x08@'
p11
tp12
Rp13
sS'pitch'
p14
g4
(g8
S'C\xe1\xbbt\x82\x9c\xd0\xbf'
p15
tp16
Rp17
sS'y'
p18
F0.02671089561074628
sS'x'
p19
F-0.15119941351785673
sS'z'
p20
F-0.12079241558063593
sS'roll'
p21
g4
(g8
S'6O\x7f\xed\xea\xbd\x08\xc0'
p22
tp23
Rp24
ss.(dp0
S'left3.jpg'
p1
(dp2
S'yaw'
p3
cnumpy.core.multiarray
scalar
p4
(cnumpy
dtype
p5
(S'f8'
p6
I0
I1
tp7
Rp8
(I3
S'<'
p9
NNNI-1
I-1
I0
tp10
bS'\x1f\x98F\xda\x0c\xa9\x08@'
p11
tp12
Rp13
sS'pitch'
p14
g4
(g8
S'\xa2\xecEcE\x07\xd3\xbf'
p15
tp16
Rp17
sS'y'
p18
F0.029394416302428557
sS'x'
p19
F-0.16279914882976185
sS'z'
p20
F-0.11905710193510373
sS'roll'
p21
g4
(g8
S'g\xdc\xda\x8b\x9c\x19\t\xc0'
p22
tp23
Rp24
ss.(dp0
S'left4.jpg'
p1
(dp2
S'yaw'
p3
cnumpy.core.multiarray
scalar
p4
(cnumpy
dtype
p5
(S'f8'
p6
I0
I1
tp7
Rp8
(I3
S'<'
p9
NNNI-1
I-1
I0
tp10
bS'\xf7\xb3\xd5\x83\xd9\xd7\x08\xc0'
p11
tp12
Rp13
sS'pitch'
p14
g4
(g8
S'%\xc5\x04\x96\x1cM\xd4\xbf'
p15
tp16
Rp17
sS'y'
p18
F0.030892984588333797
sS'x'
p19
F-0.17382734184457813
sS'z'
p20
F-0.11776120175096909
sS'roll'
p21
g4
(g8
S'a\x9aC\xfc\x88]\x08@'
p22
tp23
Rp24
ss.(dp0
S'left5.jpg'
p1
(dp2
S'yaw'
p3
cnumpy.core.multiarray
scalar
p4
(cnumpy
dtype
p5
(S'f8'
p6
I0
I1
tp7
Rp8
(I3
S'<'
p9
NNNI-1
I-1
I0
tp10
bS'\xa1W\xd7\xfc\x17\xaa\x08\xc0'
p11
tp12
Rp13
sS'pitch'
p14
g4
(g8
S'$\xe1_$\x96\x99\xc0\xbf'
p15
tp16
Rp17
sS'y'
p18
F0.03253250779510042
sS'x'
p19
F-0.12633644101939584
sS'z'
p20
F-0.12412879013088646
sS'roll'
p21
g4
(g8
S'J\xc6\x91\xbf\xce\xe2\x07@'
p22
tp23
Rp24
ss.(dp0
S'left6.jpg'
p1
(dp2
S'yaw'
p3
cnumpy.core.multiarray
scalar
p4
(cnumpy
dtype
p5
(S'f8'
p6
I0
I1
tp7
Rp8
(I3
S'<'
p9
NNNI-1
I-1
I0
tp10
bS'\x9d\xec\x9e\xf7\xa87\x08@'
p11
tp12
Rp13
sS'pitch'
p14
g4
(g8
S'H\xac\x17T\xbf\x04\xcb\xbf'
p15
tp16
Rp17
sS'y'
p18
F0.03596113221413923
sS'x'
p19
F-0.13699547439157833
sS'z'
p20
F-0.12235326818472426
sS'roll'
p21
g4
(g8
S'\xfb\xf40\x9f\xaf\n\t@'
p22
tp23
Rp24
ss.(dp0
S'left7.jpg'
p1
(dp2
S'yaw'
p3
cnumpy.core.multiarray
scalar
p4
(cnumpy
dtype
p5
(S'f8'
p6
I0
I1
tp7
Rp8
(I3
S'<'
p9
NNNI-1
I-1
I0
tp10
bS'\x93s\x87K\xa6\xa8\x08@'
p11
tp12
Rp13
sS'pitch'
p14
g4
(g8
S'\x00Ws\x81\x02r\xcf\xbf'
p15
tp16
Rp17
sS'y'
p18
F0.038639436902344323
sS'x'
p19
F-0.14823244184552128
sS'z'
p20
F-0.12080636586338404
sS'roll'
p21
g4
(g8
S'\x8a\xdf\xcdi\x00\x95\x08@'
p22
tp23
Rp24
ss.(dp0
S'left8.jpg'
p1
(dp2
S'yaw'
p3
cnumpy.core.multiarray
scalar
p4
(cnumpy
dtype
p5
(S'f8'
p6
I0
I1
tp7
Rp8
(I3
S'<'
p9
NNNI-1
I-1
I0
tp10
bS'\xfc?\x92%\xcb\xc5\x08@'
p11
tp12
Rp13
sS'pitch'
p14
g4
(g8
S'\x98\xad\xc4\x03]\x1e\xd2\xbf'
p15
tp16
Rp17
sS'y'
p18
F0.04077129024535555
sS'x'
p19
F-0.15897351666800294
sS'z'
p20
F-0.11899967666970124
sS'roll'
p21
g4
(g8
S'\x94\xb25S\xfbr\x08@'
p22
tp23
Rp24
ss.(dp0
S'left9.jpg'
p1
(dp2
S'yaw'
p3
cnumpy.core.multiarray
scalar
p4
(cnumpy
dtype
p5
(S'f8'
p6
I0
I1
tp7
Rp8
(I3
S'<'
p9
NNNI-1
I-1
I0
tp10
bS'\xe2\xce\xe7U\x10\xda\x08\xc0'
p11
tp12
Rp13
sS'pitch'
p14
g4
(g8
S'g\r\x9b\xe3w\x05\xd3\xbf'
p15
tp16
Rp17
sS'y'
p18
F0.042159518482610174
sS'x'
p19
F-0.17001149045858768
sS'z'
p20
F-0.11831563985003034
sS'roll'
p21
g4
(g8
S'\x98\xe2I\xe5\xd4\xce\x07@'
p22
tp23
Rp24
ss.(dp0
S'left10.jpg'
p1
(dp2
S'yaw'
p3
cnumpy.core.multiarray
scalar
p4
(cnumpy
dtype
p5
(S'f8'
p6
I0
I1
tp7
Rp8
(I3
S'<'
p9
NNNI-1
I-1
I0
tp10
bS'\r\x98\xeb%jg\x08@'
p11
tp12
Rp13
sS'pitch'
p14
g4
(g8
S'\xc2aU\xf4I\xcd\xc7\xbf'
p15
tp16
Rp17
sS'y'
p18
F0.043667837925670916
sS'x'
p19
F-0.12310893844837366
sS'z'
p20
F-0.12423542564350645
sS'roll'
p21
g4
(g8
S'w\xdeM\xc7\x1f\x19\x08@'
p22
tp23
Rp24
ss.(dp0
S'left11.jpg'
p1
(dp2
S'yaw'
p3
cnumpy.core.multiarray
scalar
p4
(cnumpy
dtype
p5
(S'f8'
p6
I0
I1
tp7
Rp8
(I3
S'<'
p9
NNNI-1
I-1
I0
tp10
bS'6o\x85\xbef[\x05@'
p11
tp12
Rp13
sS'pitch'
p14
g4
(g8
S'\x89\x0b\x1d\xceY\xa7\xd0\xbf'
p15
tp16
Rp17
sS'y'
p18
F0.04799405197424211
sS'x'
p19
F-0.13515344723980804
sS'z'
p20
F-0.12186235437549009
sS'roll'
p21
g4
(g8
S'\xdc5\xb7\xaaBt\x07\xc0'
p22
tp23
Rp24
ss.(dp0
S'left12.jpg'
p1
(dp2
S'yaw'
p3
cnumpy.core.multiarray
scalar
p4
(cnumpy
dtype
p5
(S'f8'
p6
I0
I1
tp7
Rp8
(I3
S'<'
p9
NNNI-1
I-1
I0
tp10
bS'3\x0bX\xeb\xfa\xde\x06@'
p11
tp12
Rp13
sS'pitch'
p14
g4
(g8
S'\xe5{[\xdc5\x16\xd3\xbf'
p15
tp16
Rp17
sS'y'
p18
F0.04955004849914341
sS'x'
p19
F-0.14479092047353448
sS'z'
p20
F-0.12167248047205757
sS'roll'
p21
g4
(g8
S'g\x93z\x86\xbb\xc6\x08\xc0'
p22
tp23
Rp24
ss.(dp0
S'left13.jpg'
p1
(dp2
S'yaw'
p3
cnumpy.core.multiarray
scalar
p4
(cnumpy
dtype
p5
(S'f8'
p6
I0
I1
tp7
Rp8
(I3
S'<'
p9
NNNI-1
I-1
I0
tp10
bS'\xff\xa5\xcc\xc5\\\x1c\x07@'
p11
tp12
Rp13
sS'pitch'
p14
g4
(g8
S'z\xbb&K;\xdc\xd6\xbf'
p15
tp16
Rp17
sS'y'
p18
F0.05186839059328233
sS'x'
p19
F-0.1574710563434964
sS'z'
p20
F-0.11853504242100854
sS'roll'
p21
g4
(g8
S'\x9a\x9f\xab\x0b?\x00\t\xc0'
p22
tp23
Rp24
ss.(dp0
S'left14.jpg'
p1
(dp2
S'yaw'
p3
cnumpy.core.multiarray
scalar
p4
(cnumpy
dtype
p5
(S'f8'
p6
I0
I1
tp7
Rp8
(I3
S'<'
p9
NNNI-1
I-1
I0
tp10
bS'\xac\x17\x9ce\x98C\x06@'
p11
tp12
Rp13
sS'pitch'
p14
g4
(g8
S'D\xcb\xd7\x91y\x14\xda\xbf'
p15
tp16
Rp17
sS'y'
p18
F0.0541572073775226
sS'x'
p19
F-0.16841831633624793
sS'z'
p20
F-0.11762222415197868
sS'roll'
p21
g4
(g8
S'\x8cyD\xeex8\x08\xc0'
p22
tp23
Rp24
ss.(dp0
S'left15.jpg'
p1
(dp2
S'yaw'
p3
cnumpy.core.multiarray
scalar
p4
(cnumpy
dtype
p5
(S'f8'
p6
I0
I1
tp7
Rp8
(I3
S'<'
p9
NNNI-1
I-1
I0
tp10
bS'\xd9\xe3\x08\xe2qQ\x02@'
p11
tp12
Rp13
sS'pitch'
p14
g4
(g8
S'38\xd4\xc5`b\xdd\xbf'
p15
tp16
Rp17
sS'y'
p18
F0.05571850808302273
sS'x'
p19
F-0.12050944030441199
sS'z'
p20
F-0.12391829382624184
sS'roll'
p21
g4
(g8
S'9(\xe6\x85S\xea\x07\xc0'
p22
tp23
Rp24
ss.(dp0
S'left16.jpg'
p1
(dp2
S'yaw'
p3
cnumpy.core.multiarray
scalar
p4
(cnumpy
dtype
p5
(S'f8'
p6
I0
I1
tp7
Rp8
(I3
S'<'
p9
NNNI-1
I-1
I0
tp10
bS'#.3\xeb\x82\xc4\x02@'
p11
tp12
Rp13
sS'pitch'
p14
g4
(g8
S'\xac\xa3\xa0,\xb0x\xe0\xbf'
p15
tp16
Rp17
sS'y'
p18
F0.05786177109870358
sS'x'
p19
F-0.13110579068919603
sS'z'
p20
F-0.12193510699577848
sS'roll'
p21
g4
(g8
S'I\xda5\x91\x93\x0b\x08\xc0'
p22
tp23
Rp24
ss.(dp0
S'left17.jpg'
p1
(dp2
S'yaw'
p3
cnumpy.core.multiarray
scalar
p4
(cnumpy
dtype
p5
(S'f8'
p6
I0
I1
tp7
Rp8
(I3
S'<'
p9
NNNI-1
I-1
I0
tp10
bS'+\xbb\xe3M\xf8a\x03@'
p11
tp12
Rp13
sS'pitch'
p14
g4
(g8
S'\xec\xfe|VxF\xe2\xbf'
p15
tp16
Rp17
sS'y'
p18
F0.06078537314941009
sS'x'
p19
F-0.1421823219819268
sS'z'
p20
F-0.12091575267562388
sS'roll'
p21
g4
(g8
S'\x94\xf2\xe0sTa\x08\xc0'
p22
tp23
Rp24
ss.(dp0
S'left18.jpg'
p1
(dp2
S'yaw'
p3
cnumpy.core.multiarray
scalar
p4
(cnumpy
dtype
p5
(S'f8'
p6
I0
I1
tp7
Rp8
(I3
S'<'
p9
NNNI-1
I-1
I0
tp10
bS'\xd5\xc1#\xca\xd3\xbb\x03@'
p11
tp12
Rp13
sS'pitch'
p14
g4
(g8
S'\xba2\x1fuW\xc5\xe3\xbf'
p15
tp16
Rp17
sS'y'
p18
F0.06215252998485376
sS'x'
p19
F-0.15426623321252225
sS'z'
p20
F-0.12022719961511973
sS'roll'
p21
g4
(g8
S'=\x95L\xe4\x7f\x82\x08\xc0'
p22
tp23
Rp24
ss.(dp0
S'left19.jpg'
p1
(dp2
S'yaw'
p3
cnumpy.core.multiarray
scalar
p4
(cnumpy
dtype
p5
(S'f8'
p6
I0
I1
tp7
Rp8
(I3
S'<'
p9
NNNI-1
I-1
I0
tp10
bS'\xcf\x1aO\x9ey\x95\x01@'
p11
tp12
Rp13
sS'pitch'
p14
g4
(g8
S'\tm]~\x99o\xe2\xbf'
p15
tp16
Rp17
sS'y'
p18
F0.065833088016907
sS'x'
p19
F-0.1653003370858466
sS'z'
p20
F-0.11672945735210395
sS'roll'
p21
g4
(g8
S'|\r\\\x0f\xaf\x95\x06\xc0'
p22
tp23
Rp24
ss.(dp0
S'left20.jpg'
p1
(dp2
S'yaw'
p3
cnumpy.core.multiarray
scalar
p4
(cnumpy
dtype
p5
(S'f8'
p6
I0
I1
tp7
Rp8
(I3
S'<'
p9
NNNI-1
I-1
I0
tp10
bS'\x885\x1b\x8e\xc6<\x02@'
p11
tp12
Rp13
sS'pitch'
p14
g4
(g8
S'\xdfM\xde+\x9a\x9f\xdf\xbf'
p15
tp16
Rp17
sS'y'
p18
F0.06669145215644058
sS'x'
p19
F-0.11805158322170872
sS'z'
p20
F-0.12388680550940592
sS'roll'
p21
g4
(g8
S'b_\x86\xa7\x99Z\x08\xc0'
p22
tp23
Rp24
ss.(dp0
S'left21.jpg'
p1
(dp2
S'yaw'
p3
cnumpy.core.multiarray
scalar
p4
(cnumpy
dtype
p5
(S'f8'
p6
I0
I1
tp7
Rp8
(I3
S'<'
p9
NNNI-1
I-1
I0
tp10
bS'\xfc\xbfw\xca\x7f\xfa\x01@'
p11
tp12
Rp13
sS'pitch'
p14
g4
(g8
S'\xbf\x97\xe2\x15>\xc7\xe0\xbf'
p15
tp16
Rp17
sS'y'
p18
F0.06918855372022131
sS'x'
p19
F-0.1295600967432917
sS'z'
p20
F-0.12235012286083653
sS'roll'
p21
g4
(g8
S'\xce\x81\x02\xb47\xeb\x07\xc0'
p22
tp23
Rp24
ss.(dp0
S'left22.jpg'
p1
(dp2
S'yaw'
p3
cnumpy.core.multiarray
scalar
p4
(cnumpy
dtype
p5
(S'f8'
p6
I0
I1
tp7
Rp8
(I3
S'<'
p9
NNNI-1
I-1
I0
tp10
bS'\n\xc4\xe9%H\xd6\xff?'
p11
tp12
Rp13
sS'pitch'
p14
g4
(g8
S'f\xbd\xf9\xf6d\xd2\xdc\xbf'
p15
tp16
Rp17
sS'y'
p18
F0.07193173512087853
sS'x'
p19
F-0.14034708287970635
sS'z'
p20
F-0.12088689534394569
sS'roll'
p21
g4
(g8
S'\xdd\xb7\x16g5\x1b\x06\xc0'
p22
tp23
Rp24
ss.(dp0
S'left23.jpg'
p1
(dp2
S'yaw'
p3
cnumpy.core.multiarray
scalar
p4
(cnumpy
dtype
p5
(S'f8'
p6
I0
I1
tp7
Rp8
(I3
S'<'
p9
NNNI-1
I-1
I0
tp10
bS'\xc4\xb0\x01\xdf"-\x00@'
p11
tp12
Rp13
sS'pitch'
p14
g4
(g8
S'\xfd\x9c\xefa\xf5/\xe0\xbf'
p15
tp16
Rp17
sS'y'
p18
F0.07403076464969982
sS'x'
p19
F-0.15109236441209942
sS'z'
p20
F-0.11918665040168312
sS'roll'
p21
g4
(g8
S'L\xd9R: #\x06\xc0'
p22
tp23
Rp24
ss.(dp0
S'left24.jpg'
p1
(dp2
S'yaw'
p3
cnumpy.core.multiarray
scalar
p4
(cnumpy
dtype
p5
(S'f8'
p6
I0
I1
tp7
Rp8
(I3
S'<'
p9
NNNI-1
I-1
I0
tp10
bS'*\x1f\xf4\xb6\x11?\x00@'
p11
tp12
Rp13
sS'pitch'
p14
g4
(g8
S'>\x862\x9e\x9c\x93\xe1\xbf'
p15
tp16
Rp17
sS'y'
p18
F0.07773523125426968
sS'x'
p19
F-0.16313496777504916
sS'z'
p20
F-0.11682742797587832
sS'roll'
p21
g4
(g8
S'z\x0e\xb8\x07\x9d\x01\x06\xc0'
p22
tp23
Rp24
ss.