(dp0
S'left0.jpg'
p1
(dp2
S'yaw'
p3
cnumpy.core.multiarray
scalar
p4
(cnumpy
dtype
p5
(S'f8'
p6
I0
I1
tp7
Rp8
(I3
S'<'
p9
NNNI-1
I-1
I0
tp10
bS'(u4Jj5\xd3\xbf'
p11
tp12
Rp13
sS'pitch'
p14
g4
(g8
S'R\x80\x04\x9a\x7fZ\xf2?'
p15
tp16
Rp17
sS'y'
p18
F0.017331484245853793
sS'x'
p19
F-0.1234241446085687
sS'z'
p20
F-0.13113161949710014
sS'roll'
p21
g4
(g8
S'FK\xa6Ed\x9d\x07\xc0'
p22
tp23
Rp24
ss.(dp0
S'left1.jpg'
p1
(dp2
S'yaw'
p3
cnumpy.core.multiarray
scalar
p4
(cnumpy
dtype
p5
(S'f8'
p6
I0
I1
tp7
Rp8
(I3
S'<'
p9
NNNI-1
I-1
I0
tp10
bS'\xbf\xceMY\xc1!\xd5\xbf'
p11
tp12
Rp13
sS'pitch'
p14
g4
(g8
S'\xf97\x8a\xb3\xb4O\xf3?'
p15
tp16
Rp17
sS'y'
p18
F0.02142429597839703
sS'x'
p19
F-0.13601321435663186
sS'z'
p20
F-0.12863956944483682
sS'roll'
p21
g4
(g8
S'\x07t4\xd7\xdc\xc1\x07\xc0'
p22
tp23
Rp24
ss.(dp0
S'left2.jpg'
p1
(dp2
S'yaw'
p3
cnumpy.core.multiarray
scalar
p4
(cnumpy
dtype
p5
(S'f8'
p6
I0
I1
tp7
Rp8
(I3
S'<'
p9
NNNI-1
I-1
I0
tp10
bS'\x17[n\xbf\xb0\xb3\xd6\xbf'
p11
tp12
Rp13
sS'pitch'
p14
g4
(g8
S'C\x895\xea\xb4\x05\xf4?'
p15
tp16
Rp17
sS'y'
p18
F0.02447103011150417
sS'x'
p19
F-0.14672447740019742
sS'z'
p20
F-0.12716846976972362
sS'roll'
p21
g4
(g8
S'\x82*\xde@O\xe7\x07\xc0'
p22
tp23
Rp24
ss.(dp0
S'left3.jpg'
p1
(dp2
S'yaw'
p3
cnumpy.core.multiarray
scalar
p4
(cnumpy
dtype
p5
(S'f8'
p6
I0
I1
tp7
Rp8
(I3
S'<'
p9
NNNI-1
I-1
I0
tp10
bS'\x11\xb6N\xe7\x18\x04\xda\xbf'
p11
tp12
Rp13
sS'pitch'
p14
g4
(g8
S'\x91\xca\xc3\xf7,\xca\xf4?'
p15
tp16
Rp17
sS'y'
p18
F0.027182037119184446
sS'x'
p19
F-0.1598449120782997
sS'z'
p20
F-0.12541243385256498
sS'roll'
p21
g4
(g8
S',\xa9"\xbc3I\x08\xc0'
p22
tp23
Rp24
ss.(dp0
S'left4.jpg'
p1
(dp2
S'yaw'
p3
cnumpy.core.multiarray
scalar
p4
(cnumpy
dtype
p5
(S'f8'
p6
I0
I1
tp7
Rp8
(I3
S'<'
p9
NNNI-1
I-1
I0
tp10
bS'A\xd0\xce\xab\x9bE\xde\xbf'
p11
tp12
Rp13
sS'pitch'
p14
g4
(g8
S'\x1f\r\x84cIo\xf5?'
p15
tp16
Rp17
sS'y'
p18
F0.029133875319207417
sS'x'
p19
F-0.17186913088004263
sS'z'
p20
F-0.12337310101995169
sS'roll'
p21
g4
(g8
S'\x7fC\xae=|\xcf\x08\xc0'
p22
tp23
Rp24
ss.(dp0
S'left5.jpg'
p1
(dp2
S'yaw'
p3
cnumpy.core.multiarray
scalar
p4
(cnumpy
dtype
p5
(S'f8'
p6
I0
I1
tp7
Rp8
(I3
S'<'
p9
NNNI-1
I-1
I0
tp10
bS'\x80\xadNc\xc6R\xcc\xbf'
p11
tp12
Rp13
sS'pitch'
p14
g4
(g8
S'\xf2\x06(Q\xe9\xb2\xf2?'
p15
tp16
Rp17
sS'y'
p18
F0.03131791570885719
sS'x'
p19
F-0.12025162063114497
sS'z'
p20
F-0.12855793592198791
sS'roll'
p21
g4
(g8
S'\xf5Y\x85\x81gd\x06\xc0'
p22
tp23
Rp24
ss.(dp0
S'left6.jpg'
p1
(dp2
S'yaw'
p3
cnumpy.core.multiarray
scalar
p4
(cnumpy
dtype
p5
(S'f8'
p6
I0
I1
tp7
Rp8
(I3
S'<'
p9
NNNI-1
I-1
I0
tp10
bS'\x98\x14\x98\x84\xc6w\xcf\xbf'
p11
tp12
Rp13
sS'pitch'
p14
g4
(g8
S'G\x89\xc5Y\x80v\xf3?'
p15
tp16
Rp17
sS'y'
p18
F0.03355665681434218
sS'x'
p19
F-0.13244822709826212
sS'z'
p20
F-0.12877292864991383
sS'roll'
p21
g4
(g8
S'\xaf\xb6\x04\x7f\xa2\x94\x06\xc0'
p22
tp23
Rp24
ss.(dp0
S'left7.jpg'
p1
(dp2
S'yaw'
p3
cnumpy.core.multiarray
scalar
p4
(cnumpy
dtype
p5
(S'f8'
p6
I0
I1
tp7
Rp8
(I3
S'<'
p9
NNNI-1
I-1
I0
tp10
bS'/4\xdd\xc1\n\xfd\xd1\xbf'
p11
tp12
Rp13
sS'pitch'
p14
g4
(g8
S'\x88\x17$\t\x9fM\xf4?'
p15
tp16
Rp17
sS'y'
p18
F0.03582690301553895
sS'x'
p19
F-0.14521605767935913
sS'z'
p20
F-0.1270600315078264
sS'roll'
p21
g4
(g8
S'\x19\xd8\xe9\n\xb2\xda\x06\xc0'
p22
tp23
Rp24
ss.(dp0
S'left8.jpg'
p1
(dp2
S'yaw'
p3
cnumpy.core.multiarray
scalar
p4
(cnumpy
dtype
p5
(S'f8'
p6
I0
I1
tp7
Rp8
(I3
S'<'
p9
NNNI-1
I-1
I0
tp10
bS'\xf6\xb7\xa8F\xe2\xb4\xd4\xbf'
p11
tp12
Rp13
sS'pitch'
p14
g4
(g8
S'\x15\xc0L\x0c\xb9\x16\xf5?'
p15
tp16
Rp17
sS'y'
p18
F0.03881045875701075
sS'x'
p19
F-0.15834726217183376
sS'z'
p20
F-0.12533861383158157
sS'roll'
p21
g4
(g8
S'FM\xad\xa6\x06+\x07\xc0'
p22
tp23
Rp24
ss.(dp0
S'left9.jpg'
p1
(dp2
S'yaw'
p3
cnumpy.core.multiarray
scalar
p4
(cnumpy
dtype
p5
(S'f8'
p6
I0
I1
tp7
Rp8
(I3
S'<'
p9
NNNI-1
I-1
I0
tp10
bS'\x9d\xcbM\xa6\xfeg\xd8\xbf'
p11
tp12
Rp13
sS'pitch'
p14
g4
(g8
S'&\x13%\x1e%\xc3\xf5?'
p15
tp16
Rp17
sS'y'
p18
F0.041236731334565915
sS'x'
p19
F-0.16986838334824772
sS'z'
p20
F-0.12284483467900746
sS'roll'
p21
g4
(g8
S'\xfas~`\xec\x9c\x07\xc0'
p22
tp23
Rp24
ss.(dp0
S'left10.jpg'
p1
(dp2
S'yaw'
p3
cnumpy.core.multiarray
scalar
p4
(cnumpy
dtype
p5
(S'f8'
p6
I0
I1
tp7
Rp8
(I3
S'<'
p9
NNNI-1
I-1
I0
tp10
bS'\xab\r\xd6\xea\xe4\x80\xc4\xbf'
p11
tp12
Rp13
sS'pitch'
p14
g4
(g8
S'\x91\x0e=\x01\x95\x99\xf2?'
p15
tp16
Rp17
sS'y'
p18
F0.04089605644542979
sS'x'
p19
F-0.1187121164444721
sS'z'
p20
F-0.13047870088874391
sS'roll'
p21
g4
(g8
S'|\\\x18G\xa1\x90\x05\xc0'
p22
tp23
Rp24
ss.(dp0
S'left11.jpg'
p1
(dp2
S'yaw'
p3
cnumpy.core.multiarray
scalar
p4
(cnumpy
dtype
p5
(S'f8'
p6
I0
I1
tp7
Rp8
(I3
S'<'
p9
NNNI-1
I-1
I0
tp10
bS')\xc6b\x1e\x07\xe2\xc5\xbf'
p11
tp12
Rp13
sS'pitch'
p14
g4
(g8
S'\xdc\xd1\xc5A\xa8\xa1\xf3?'
p15
tp16
Rp17
sS'y'
p18
F0.045161137446961014
sS'x'
p19
F-0.1317070240729381
sS'z'
p20
F-0.12763398065290854
sS'roll'
p21
g4
(g8
S'\x06\xd84>\xb2\x93\x05\xc0'
p22
tp23
Rp24
ss.(dp0
S'left12.jpg'
p1
(dp2
S'yaw'
p3
cnumpy.core.multiarray
scalar
p4
(cnumpy
dtype
p5
(S'f8'
p6
I0
I1
tp7
Rp8
(I3
S'<'
p9
NNNI-1
I-1
I0
tp10
bS'-\xed==O\x1b\xc8\xbf'
p11
tp12
Rp13
sS'pitch'
p14
g4
(g8
S'[]\x8f\x90\xbeL\xf4?'
p15
tp16
Rp17
sS'y'
p18
F0.04778004467161756
sS'x'
p19
F-0.14260918328916555
sS'z'
p20
F-0.12730939473334485
sS'roll'
p21
g4
(g8
S',L\x13~|\xb3\x05\xc0'
p22
tp23
Rp24
ss.(dp0
S'left13.jpg'
p1
(dp2
S'yaw'
p3
cnumpy.core.multiarray
scalar
p4
(cnumpy
dtype
p5
(S'f8'
p6
I0
I1
tp7
Rp8
(I3
S'<'
p9
NNNI-1
I-1
I0
tp10
bS'FR\xb3\xfd4n\xcb\xbf'
p11
tp12
Rp13
sS'pitch'
p14
g4
(g8
S'\xa5\xb2\x89\xeb\xc0\x08\xf5?'
p15
tp16
Rp17
sS'y'
p18
F0.05095090833474977
sS'x'
p19
F-0.15472394884869123
sS'z'
p20
F-0.125911305618635
sS'roll'
p21
g4
(g8
S'\x8bk\xaeh\x1e\xe2\x05\xc0'
p22
tp23
Rp24
ss.(dp0
S'left14.jpg'
p1
(dp2
S'yaw'
p3
cnumpy.core.multiarray
scalar
p4
(cnumpy
dtype
p5
(S'f8'
p6
I0
I1
tp7
Rp8
(I3
S'<'
p9
NNNI-1
I-1
I0
tp10
bS'\xb7+\xb8V\x89\x08\xd1\xbf'
p11
tp12
Rp13
sS'pitch'
p14
g4
(g8
S'\x132!G\xb6\xbc\xf5?'
p15
tp16
Rp17
sS'y'
p18
F0.052472878564552836
sS'x'
p19
F-0.1678972293364272
sS'z'
p20
F-0.12454252491822969
sS'roll'
p21
g4
(g8
S'\x8c\xfe\x0b~YU\x06\xc0'
p22
tp23
Rp24
ss.(dp0
S'left15.jpg'
p1
(dp2
S'yaw'
p3
cnumpy.core.multiarray
scalar
p4
(cnumpy
dtype
p5
(S'f8'
p6
I0
I1
tp7
Rp8
(I3
S'<'
p9
NNNI-1
I-1
I0
tp10
bS'\xe0P\xd9\xae\x8d\xc2\xb4\xbf'
p11
tp12
Rp13
sS'pitch'
p14
g4
(g8
S'\xfa\x8b\xdc\nf\x7f\xf2?'
p15
tp16
Rp17
sS'y'
p18
F0.05300918287264167
sS'x'
p19
F-0.11525455112495492
sS'z'
p20
F-0.13141672442699504
sS'roll'
p21
g4
(g8
S'_]\xddN\x11v\x04\xc0'
p22
tp23
Rp24
ss.(dp0
S'left16.jpg'
p1
(dp2
S'yaw'
p3
cnumpy.core.multiarray
scalar
p4
(cnumpy
dtype
p5
(S'f8'
p6
I0
I1
tp7
Rp8
(I3
S'<'
p9
NNNI-1
I-1
I0
tp10
bS'\x81?R\x06\xfeC\xb7\xbf'
p11
tp12
Rp13
sS'pitch'
p14
g4
(g8
S'\xc2\xb7\xf2\xabAn\xf3?'
p15
tp16
Rp17
sS'y'
p18
F0.055534737814821426
sS'x'
p19
F-0.12765331729076243
sS'z'
p20
F-0.12959664284775899
sS'roll'
p21
g4
(g8
S'\x9aG^3\xfa\x88\x04\xc0'
p22
tp23
Rp24
ss.(dp0
S'left17.jpg'
p1
(dp2
S'yaw'
p3
cnumpy.core.multiarray
scalar
p4
(cnumpy
dtype
p5
(S'f8'
p6
I0
I1
tp7
Rp8
(I3
S'<'
p9
NNNI-1
I-1
I0
tp10
bS'\x9b\xc1&\xffSL\xb8\xbf'
p11
tp12
Rp13
sS'pitch'
p14
g4
(g8
S'\xcf\x18M\xfb!p\xf4?'
p15
tp16
Rp17
sS'y'
p18
F0.05934975936139039
sS'x'
p19
F-0.14006764488002516
sS'z'
p20
F-0.12570130464860282
sS'roll'
p21
g4
(g8
S'\trW+S\x83\x04\xc0'
p22
tp23
Rp24
ss.(dp0
S'left18.jpg'
p1
(dp2
S'yaw'
p3
cnumpy.core.multiarray
scalar
p4
(cnumpy
dtype
p5
(S'f8'
p6
I0
I1
tp7
Rp8
(I3
S'<'
p9
NNNI-1
I-1
I0
tp10
bS'\x17\xc8$\\\x84\xe4\xbc\xbf'
p11
tp12
Rp13
sS'pitch'
p14
g4
(g8
S'\x8cdA\x1dK/\xf5?'
p15
tp16
Rp17
sS'y'
p18
F0.06225409367981157
sS'x'
p19
F-0.1529879154298252
sS'z'
p20
F-0.1250564572784083
sS'roll'
p21
g4
(g8
S'\xc8\xdd3\xec\x82\xa9\x04\xc0'
p22
tp23
Rp24
ss.(dp0
S'left19.jpg'
p1
(dp2
S'yaw'
p3
cnumpy.core.multiarray
scalar
p4
(cnumpy
dtype
p5
(S'f8'
p6
I0
I1
tp7
Rp8
(I3
S'<'
p9
NNNI-1
I-1
I0
tp10
bS'+\xe2\xa2\nE\xe8\xc1\xbf'
p11
tp12
Rp13
sS'pitch'
p14
g4
(g8
S'\x8a\xf2k\x9f\xfc\xda\xf5?'
p15
tp16
Rp17
sS'y'
p18
F0.06434982293194504
sS'x'
p19
F-0.16482863331173628
sS'z'
p20
F-0.12384748977604826
sS'roll'
p21
g4
(g8
S'\xd9\x96\xf6&\xde\xe5\x04\xc0'
p22
tp23
Rp24
ss.(dp0
S'left20.jpg'
p1
(dp2
S'yaw'
p3
cnumpy.core.multiarray
scalar
p4
(cnumpy
dtype
p5
(S'f8'
p6
I0
I1
tp7
Rp8
(I3
S'<'
p9
NNNI-1
I-1
I0
tp10
bS'v\xed\x8e\xd6(\x92=\xbf'
p11
tp12
Rp13
sS'pitch'
p14
g4
(g8
S'\x16:tX_\xb0\xf2?'
p15
tp16
Rp17
sS'y'
p18
F0.06396020562404711
sS'x'
p19
F-0.11335711415132478
sS'z'
p20
F-0.130918987525639
sS'roll'
p21
g4
(g8
S'\xd2n]Z6S\x03\xc0'
p22
tp23
Rp24
ss.(dp0
S'left21.jpg'
p1
(dp2
S'yaw'
p3
cnumpy.core.multiarray
scalar
p4
(cnumpy
dtype
p5
(S'f8'
p6
I0
I1
tp7
Rp8
(I3
S'<'
p9
NNNI-1
I-1
I0
tp10
bS'\x06\xb0\x84  \t\x93?'
p11
tp12
Rp13
sS'pitch'
p14
g4
(g8
S'\xdfW\xbdWm\xbd\xf3?'
p15
tp16
Rp17
sS'y'
p18
F0.06897624581589244
sS'x'
p19
F-0.12643429458866712
sS'z'
p20
F-0.12806897591869634
sS'roll'
p21
g4
(g8
S'\x0e\xbc\x16\xe3\x88\x18\x03\xc0'
p22
tp23
Rp24
ss.(dp0
S'left22.jpg'
p1
(dp2
S'yaw'
p3
cnumpy.core.multiarray
scalar
p4
(cnumpy
dtype
p5
(S'f8'
p6
I0
I1
tp7
Rp8
(I3
S'<'
p9
NNNI-1
I-1
I0
tp10
bS'Np\x8d\x9a\xbe_\x85?'
p11
tp12
Rp13
sS'pitch'
p14
g4
(g8
S'\xe6\x83\t A|\xf4?'
p15
tp16
Rp17
sS'y'
p18
F0.07024755789335528
sS'x'
p19
F-0.13746337323266633
sS'z'
p20
F-0.12706989530704066
sS'roll'
p21
g4
(g8
S'\xac\xf0\xb02[4\x03\xc0'
p22
tp23
Rp24
ss.(dp0
S'left23.jpg'
p1
(dp2
S'yaw'
p3
cnumpy.core.multiarray
scalar
p4
(cnumpy
dtype
p5
(S'f8'
p6
I0
I1
tp7
Rp8
(I3
S'<'
p9
NNNI-1
I-1
I0
tp10
bS'\x8cIf\xb6\xef\xc1\x80?'
p11
tp12
Rp13
sS'pitch'
p14
g4
(g8
S'\xaf\xfaqe\xc7T\xf5?'
p15
tp16
Rp17
sS'y'
p18
F0.07307324396790575
sS'x'
p19
F-0.15115819444260112
sS'z'
p20
F-0.1258085785052809
sS'roll'
p21
g4
(g8
S'\xd4l\xafJ\xdc>\x03\xc0'
p22
tp23
Rp24
ss.(dp0
S'left24.jpg'
p1
(dp2
S'yaw'
p3
cnumpy.core.multiarray
scalar
p4
(cnumpy
dtype
p5
(S'f8'
p6
I0
I1
tp7
Rp8
(I3
S'<'
p9
NNNI-1
I-1
I0
tp10
bS'\x9ao\xaa\x94\xbeC\xc0?'
p11
tp12
Rp13
sS'pitch'
p14
g4
(g8
S'\x86\xa6\xb1\x14\x03\xcf\xf6?'
p15
tp16
Rp17
sS'y'
p18
F0.07553443453763174
sS'x'
p19
F-0.16482599412864246
sS'z'
p20
F-0.12451153647036373
sS'roll'
p21
g4
(g8
S'#%N3\x99\x01\x02\xc0'
p22
tp23
Rp24
ss.