(dp0
S'r'
p1
ccopy_reg
_reconstructor
p2
(csensor_msgs.msg._CameraInfo
CameraInfo
p3
c__builtin__
object
p4
Ntp5
Rp6
(lp7
g2
(cstd_msgs.msg._Header
Header
p8
g4
Ntp9
Rp10
(lp11
I30216806
ag2
(cgenpy.rostime
Time
p12
g4
Ntp13
Rp14
(lp15
I1539453973
aI999257701
abaS'/endoscope_frame'
p16
abaI1080
aI1920
aS'plumb_bob'
p17
a(F-0.32927
F0.5410400000000001
F0.02391
F-0.009810000000000001
F0.0
tp18
a(F1757.57607
F0.0
F1039.2752
F0.0
F1770.80937
F605.58705
F0.0
F0.0
F1.0
tp19
a(F0.9957100000000001
F-0.04136
F-0.08275
F0.041210000000000004
F0.99914
F-0.00352
F0.08282
F9e-05
F0.9965600000000001
tp20
a(F2144.0564
F0.0
F1116.71052
F-13.24186
F0.0
F2144.0564
F599.58294
F0.0
F0.0
F0.0
F1.0
F0.0
tp21
aI0
aI0
ag2
(csensor_msgs.msg._RegionOfInterest
RegionOfInterest
p22
g4
Ntp23
Rp24
(lp25
I0
aI0
aI0
aI0
aI00
ababsS'b'
p26
NsS'l'
p27
g2
(g3
g4
Ntp28
Rp29
(lp30
g2
(g8
g4
Ntp31
Rp32
(lp33
I30216579
ag2
(g12
g4
Ntp34
Rp35
(lp36
I1539453974
aI8155242
abaS'/endoscope_frame'
p37
abaI1080
aI1920
aS'plumb_bob'
p38
a(F-0.35296000000000005
F0.74873
F-0.0005300000000000001
F0.00753
F0.0
tp39
a(F1738.63078
F0.0
F812.31424
F0.0
F1754.28989
F578.93452
F0.0
F0.0
F1.0
tp40
a(F0.9937400000000001
F-0.04447
F-0.10251
F0.04465
F0.9990000000000001
F-0.0004900000000000001
F0.10242000000000001
F-0.004090000000000001
F0.9947300000000001
tp41
a(F2144.0564
F0.0
F1116.71052
F0.0
F0.0
F2144.0564
F599.58294
F0.0
F0.0
F0.0
F1.0
F0.0
tp42
aI0
aI0
ag2
(g22
g4
Ntp43
Rp44
(lp45
I0
aI0
aI0
aI0
aI00
ababsS'd'
p46
Ns.