(dp0
S'left0.jpg'
p1
(dp2
S'yaw'
p3
cnumpy.core.multiarray
scalar
p4
(cnumpy
dtype
p5
(S'f8'
p6
I0
I1
tp7
Rp8
(I3
S'<'
p9
NNNI-1
I-1
I0
tp10
bS'\x97\x18\xb3\x11.\xd7\xe0\xbf'
p11
tp12
Rp13
sS'pitch'
p14
g4
(g8
S'L-\xdcnI0\xf5?'
p15
tp16
Rp17
sS'y'
p18
F0.02783139374214807
sS'x'
p19
F-0.17565920728828835
sS'z'
p20
F-0.12018407282105531
sS'roll'
p21
g4
(g8
S'\xe4\x83\x8d\x17\xed\x1f\x07\xc0'
p22
tp23
Rp24
ss.(dp0
S'left1.jpg'
p1
(dp2
S'yaw'
p3
cnumpy.core.multiarray
scalar
p4
(cnumpy
dtype
p5
(S'f8'
p6
I0
I1
tp7
Rp8
(I3
S'<'
p9
NNNI-1
I-1
I0
tp10
bS'\x0b\xbd\x00\xd3\x14\xd1\xdc\xbf'
p11
tp12
Rp13
sS'pitch'
p14
g4
(g8
S'\xa5\x81\x827\x8cj\xf4?'
p15
tp16
Rp17
sS'y'
p18
F0.02409885693619504
sS'x'
p19
F-0.16151494803373842
sS'z'
p20
F-0.12287677794869735
sS'roll'
p21
g4
(g8
S'\xe5|I+\x0b\x95\x06\xc0'
p22
tp23
Rp24
ss.(dp0
S'left2.jpg'
p1
(dp2
S'yaw'
p3
cnumpy.core.multiarray
scalar
p4
(cnumpy
dtype
p5
(S'f8'
p6
I0
I1
tp7
Rp8
(I3
S'<'
p9
NNNI-1
I-1
I0
tp10
bS'&%l\x13\xa4\xfd\xd8\xbf'
p11
tp12
Rp13
sS'pitch'
p14
g4
(g8
S"\xd1',\xf4`\xa5\xf3?"
p15
tp16
Rp17
sS'y'
p18
F0.022067427433722586
sS'x'
p19
F-0.1495215293089622
sS'z'
p20
F-0.12618258754338485
sS'roll'
p21
g4
(g8
S'#\xea:\x02f \x06\xc0'
p22
tp23
Rp24
ss.(dp0
S'left3.jpg'
p1
(dp2
S'yaw'
p3
cnumpy.core.multiarray
scalar
p4
(cnumpy
dtype
p5
(S'f8'
p6
I0
I1
tp7
Rp8
(I3
S'<'
p9
NNNI-1
I-1
I0
tp10
bS'*\x1e\xf0\xf0\xff\r\xd8\xbf'
p11
tp12
Rp13
sS'pitch'
p14
g4
(g8
S'v\x9a\x0e\xa1u\xf9\xf2?'
p15
tp16
Rp17
sS'y'
p18
F0.01945966028323273
sS'x'
p19
F-0.13846020815173674
sS'z'
p20
F-0.12691873874135084
sS'roll'
p21
g4
(g8
S'^E\xcb\xa4)\x05\x06\xc0'
p22
tp23
Rp24
ss.(dp0
S'left4.jpg'
p1
(dp2
S'yaw'
p3
cnumpy.core.multiarray
scalar
p4
(cnumpy
dtype
p5
(S'f8'
p6
I0
I1
tp7
Rp8
(I3
S'<'
p9
NNNI-1
I-1
I0
tp10
bS'\x01\x1e\xf6m\xb2T\xd4\xbf'
p11
tp12
Rp13
sS'pitch'
p14
g4
(g8
S'\x14\xa5p\xc2\x8a\x10\xf2?'
p15
tp16
Rp17
sS'y'
p18
F0.016317462978084406
sS'x'
p19
F-0.12568733152743086
sS'z'
p20
F-0.1296358145664177
sS'roll'
p21
g4
(g8
S'\xd8\x8c4\x8d\t\xa7\x05\xc0'
p22
tp23
Rp24
ss.(dp0
S'left5.jpg'
p1
(dp2
S'yaw'
p3
cnumpy.core.multiarray
scalar
p4
(cnumpy
dtype
p5
(S'f8'
p6
I0
I1
tp7
Rp8
(I3
S'<'
p9
NNNI-1
I-1
I0
tp10
bS'\xb3\xfda\xd4\x0c\xda\xd0\xbf'
p11
tp12
Rp13
sS'pitch'
p14
g4
(g8
S'i\t\xd1\x9c\xd7\x07\xf2?'
p15
tp16
Rp17
sS'y'
p18
F0.027108689167004946
sS'x'
p19
F-0.12187981116260366
sS'z'
p20
F-0.1296638810310691
sS'roll'
p21
g4
(g8
S'\xf6jsaJ\xca\x04\xc0'
p22
tp23
Rp24
ss.(dp0
S'left6.jpg'
p1
(dp2
S'yaw'
p3
cnumpy.core.multiarray
scalar
p4
(cnumpy
dtype
p5
(S'f8'
p6
I0
I1
tp7
Rp8
(I3
S'<'
p9
NNNI-1
I-1
I0
tp10
bS'\r\x96lk4{\xd2\xbf'
p11
tp12
Rp13
sS'pitch'
p14
g4
(g8
S'\x95\xee\x98V\xf4\xfc\xf2?'
p15
tp16
Rp17
sS'y'
p18
F0.03072098802019557
sS'x'
p19
F-0.13446137661330038
sS'z'
p20
F-0.12718480148009623
sS'roll'
p21
g4
(g8
S'\x98\xf6\xe8;6\xee\x04\xc0'
p22
tp23
Rp24
ss.(dp0
S'left7.jpg'
p1
(dp2
S'yaw'
p3
cnumpy.core.multiarray
scalar
p4
(cnumpy
dtype
p5
(S'f8'
p6
I0
I1
tp7
Rp8
(I3
S'<'
p9
NNNI-1
I-1
I0
tp10
bS'\xfa\xbbr\xb7\x8e\x85\xd4\xbf'
p11
tp12
Rp13
sS'pitch'
p14
g4
(g8
S'B\xe8y\x89+\xc6\xf3?'
p15
tp16
Rp17
sS'y'
p18
F0.03456292446231482
sS'x'
p19
F-0.14656247746933987
sS'z'
p20
F-0.12583477031997833
sS'roll'
p21
g4
(g8
S'\x83`p\x1fA\x1c\x05\xc0'
p22
tp23
Rp24
ss.(dp0
S'left8.jpg'
p1
(dp2
S'yaw'
p3
cnumpy.core.multiarray
scalar
p4
(cnumpy
dtype
p5
(S'f8'
p6
I0
I1
tp7
Rp8
(I3
S'<'
p9
NNNI-1
I-1
I0
tp10
bS'\x06\x18\x9d\xb85O\xd9\xbf'
p11
tp12
Rp13
sS'pitch'
p14
g4
(g8
S'##\xbc\xe1\xd8\x97\xf4?'
p15
tp16
Rp17
sS'y'
p18
F0.036456324659494305
sS'x'
p19
F-0.15869320284299787
sS'z'
p20
F-0.12203267275099869
sS'roll'
p21
g4
(g8
S'\x00ei\xb9\xfc\xaf\x05\xc0'
p22
tp23
Rp24
ss.(dp0
S'left9.jpg'
p1
(dp2
S'yaw'
p3
cnumpy.core.multiarray
scalar
p4
(cnumpy
dtype
p5
(S'f8'
p6
I0
I1
tp7
Rp8
(I3
S'<'
p9
NNNI-1
I-1
I0
tp10
bS'\xcb\xbb\x03.\x89X\xda\xbf'
p11
tp12
Rp13
sS'pitch'
p14
g4
(g8
S'\x9f \x0c\x91\xab\x15\xf5?'
p15
tp16
Rp17
sS'y'
p18
F0.039917381765255694
sS'x'
p19
F-0.16923960490995987
sS'z'
p20
F-0.12232122884258277
sS'roll'
p21
g4
(g8
S'\xd2\x80>\x81\x8b\xc9\x05\xc0'
p22
tp23
Rp24
ss.(dp0
S'left10.jpg'
p1
(dp2
S'yaw'
p3
cnumpy.core.multiarray
scalar
p4
(cnumpy
dtype
p5
(S'f8'
p6
I0
I1
tp7
Rp8
(I3
S'<'
p9
NNNI-1
I-1
I0
tp10
bS'\xe7<\xc8\xe9\xb9-\xf5\xbf'
p11
tp12
Rp13
sS'pitch'
p14
g4
(g8
S'\x9baU\r\xcc\xdf\xf2?'
p15
tp16
Rp17
sS'y'
p18
F0.053301719442531495
sS'x'
p19
F-0.17080903268847736
sS'z'
p20
F-0.12193170703906689
sS'roll'
p21
g4
(g8
S'\x86\xd2&\x9e\xb4\xe6\x06@'
p22
tp23
Rp24
ss.(dp0
S'left11.jpg'
p1
(dp2
S'yaw'
p3
cnumpy.core.multiarray
scalar
p4
(cnumpy
dtype
p5
(S'f8'
p6
I0
I1
tp7
Rp8
(I3
S'<'
p9
NNNI-1
I-1
I0
tp10
bS'0\x04\xf8\xb2\xbcO\xee\xbf'
p11
tp12
Rp13
sS'pitch'
p14
g4
(g8
S'\x86\xbf\xbaL1\xb3\xf3?'
p15
tp16
Rp17
sS'y'
p18
F0.0479619982727724
sS'x'
p19
F-0.15825699940301308
sS'z'
p20
F-0.1252906127653178
sS'roll'
p21
g4
(g8
S'\x9cON\xd7\xee\xde\x08\xc0'
p22
tp23
Rp24
ss.(dp0
S'left12.jpg'
p1
(dp2
S'yaw'
p3
cnumpy.core.multiarray
scalar
p4
(cnumpy
dtype
p5
(S'f8'
p6
I0
I1
tp7
Rp8
(I3
S'<'
p9
NNNI-1
I-1
I0
tp10
bS'\xa53\xb7;\x0b\x8b\xeb\xbf'
p11
tp12
Rp13
sS'pitch'
p14
g4
(g8
S'\x1bS\xf6\xb9\xe32\xf3?'
p15
tp16
Rp17
sS'y'
p18
F0.04647365140481405
sS'x'
p19
F-0.1451920182381252
sS'z'
p20
F-0.12652202608542587
sS'roll'
p21
g4
(g8
S'\xe4h8\xa2\xd6\x13\x08\xc0'
p22
tp23
Rp24
ss.(dp0
S'left13.jpg'
p1
(dp2
S'yaw'
p3
cnumpy.core.multiarray
scalar
p4
(cnumpy
dtype
p5
(S'f8'
p6
I0
I1
tp7
Rp8
(I3
S'<'
p9
NNNI-1
I-1
I0
tp10
bS'@\xb3>\xf24E\xe6\xbf'
p11
tp12
Rp13
sS'pitch'
p14
g4
(g8
S'\x04\x06\xe7\xcay\xd6\xf2?'
p15
tp16
Rp17
sS'y'
p18
F0.04132243921399289
sS'x'
p19
F-0.13342218562878602
sS'z'
p20
F-0.1287959725267977
sS'roll'
p21
g4
(g8
S'Ji8\x13\t\xeb\x06\xc0'
p22
tp23
Rp24
ss.(dp0
S'left14.jpg'
p1
(dp2
S'yaw'
p3
cnumpy.core.multiarray
scalar
p4
(cnumpy
dtype
p5
(S'f8'
p6
I0
I1
tp7
Rp8
(I3
S'<'
p9
NNNI-1
I-1
I0
tp10
bS'\xe7\xa9&\x08^@\xe4\xbf'
p11
tp12
Rp13
sS'pitch'
p14
g4
(g8
S';\xbaG\xaf\xb6A\xf2?'
p15
tp16
Rp17
sS'y'
p18
F0.039534626379199404
sS'x'
p19
F-0.12246419029630523
sS'z'
p20
F-0.12928215594841225
sS'roll'
p21
g4
(g8
S'\xe86\xfd\xb8b_\x06\xc0'
p22
tp23
Rp24
ss.(dp0
S'left15.jpg'
p1
(dp2
S'yaw'
p3
cnumpy.core.multiarray
scalar
p4
(cnumpy
dtype
p5
(S'f8'
p6
I0
I1
tp7
Rp8
(I3
S'<'
p9
NNNI-1
I-1
I0
tp10
bS'\x07\xcd\x04\xb9{\xe9\xd8\xbf'
p11
tp12
Rp13
sS'pitch'
p14
g4
(g8
S'\x9a\xd3\xeb\xab3z\xf2?'
p15
tp16
Rp17
sS'y'
p18
F0.05090116620039584
sS'x'
p19
F-0.11887158584318469
sS'z'
p20
F-0.1306940804813493
sS'roll'
p21
g4
(g8
S'\x8a\x96>\xc0\xa1X\x04\xc0'
p22
tp23
Rp24
ss.(dp0
S'left16.jpg'
p1
(dp2
S'yaw'
p3
cnumpy.core.multiarray
scalar
p4
(cnumpy
dtype
p5
(S'f8'
p6
I0
I1
tp7
Rp8
(I3
S'<'
p9
NNNI-1
I-1
I0
tp10
bS'|`\xa5\xd0\xd9\xcf\xc3\xbf'
p11
tp12
Rp13
sS'pitch'
p14
g4
(g8
S't.\x8f\x989:\xf3?'
p15
tp16
Rp17
sS'y'
p18
F0.0559115375810987
sS'x'
p19
F-0.13037927441699687
sS'z'
p20
F-0.12834201466167625
sS'roll'
p21
g4
(g8
S'\xd9:\xc8q\x9a\xd9\x02\xc0'
p22
tp23
Rp24
ss.(dp0
S'left17.jpg'
p1
(dp2
S'yaw'
p3
cnumpy.core.multiarray
scalar
p4
(cnumpy
dtype
p5
(S'f8'
p6
I0
I1
tp7
Rp8
(I3
S'<'
p9
NNNI-1
I-1
I0
tp10
bS'\xcf\x87\xf5\xf5\xbeg\xc7\xbf'
p11
tp12
Rp13
sS'pitch'
p14
g4
(g8
S'\x8b\xb8\xabgj5\xf4?'
p15
tp16
Rp17
sS'y'
p18
F0.059468162322547063
sS'x'
p19
F-0.1435401981835095
sS'z'
p20
F-0.1251508440955521
sS'roll'
p21
g4
(g8
S'\xc6\x9b\xe9\xaf\xbe\t\x03\xc0'
p22
tp23
Rp24
ss.(dp0
S'left18.jpg'
p1
(dp2
S'yaw'
p3
cnumpy.core.multiarray
scalar
p4
(cnumpy
dtype
p5
(S'f8'
p6
I0
I1
tp7
Rp8
(I3
S'<'
p9
NNNI-1
I-1
I0
tp10
bS'\xb3*uF\x1ct\xcd\xbf'
p11
tp12
Rp13
sS'pitch'
p14
g4
(g8
S'&\xad4Y\xb1\xda\xf4?'
p15
tp16
Rp17
sS'y'
p18
F0.0594299466463552
sS'x'
p19
F-0.15514875485599514
sS'z'
p20
F-0.12418302674669454
sS'roll'
p21
g4
(g8
S'\xf5\xe0\x8b\xd5Y\x81\x03\xc0'
p22
tp23
Rp24
ss.(dp0
S'left19.jpg'
p1
(dp2
S'yaw'
p3
cnumpy.core.multiarray
scalar
p4
(cnumpy
dtype
p5
(S'f8'
p6
I0
I1
tp7
Rp8
(I3
S'<'
p9
NNNI-1
I-1
I0
tp10
bS'\xe1BZ"}\x81\xd2\xbf'
p11
tp12
Rp13
sS'pitch'
p14
g4
(g8
S'\xf9N\xf3\xeb\xd4\xb1\xf5?'
p15
tp16
Rp17
sS'y'
p18
F0.061083957135101175
sS'x'
p19
F-0.16696033963552784
sS'z'
p20
F-0.11945005436935244
sS'roll'
p21
g4
(g8
S'\xa1w9C\xf7\xff\x03\xc0'
p22
tp23
Rp24
ss.(dp0
S'left20.jpg'
p1
(dp2
S'yaw'
p3
cnumpy.core.multiarray
scalar
p4
(cnumpy
dtype
p5
(S'f8'
p6
I0
I1
tp7
Rp8
(I3
S'<'
p9
NNNI-1
I-1
I0
tp10
bS'\x00\xa1\xfc\x0b#\xd9\xc1\xbf'
p11
tp12
Rp13
sS'pitch'
p14
g4
(g8
S'\xad\xcc\x85\xc4fq\xf5?'
p15
tp16
Rp17
sS'y'
p18
F0.07435284018859152
sS'x'
p19
F-0.16477558886443064
sS'z'
p20
F-0.12365176003676427
sS'roll'
p21
g4
(g8
S't\xd9/\xa5\x7fm\x02\xc0'
p22
tp23
Rp24
ss.(dp0
S'left21.jpg'
p1
(dp2
S'yaw'
p3
cnumpy.core.multiarray
scalar
p4
(cnumpy
dtype
p5
(S'f8'
p6
I0
I1
tp7
Rp8
(I3
S'<'
p9
NNNI-1
I-1
I0
tp10
bS'\xf34S\xceaM\xbe\xbf'
p11
tp12
Rp13
sS'pitch'
p14
g4
(g8
S'\x93\xc2\xf7\x02,\xdc\xf4?'
p15
tp16
Rp17
sS'y'
p18
F0.07168750449712352
sS'x'
p19
F-0.15357275485206895
sS'z'
p20
F-0.12424773699623913
sS'roll'
p21
g4
(g8
S'\xeb\x03\xf5\xb1\xf4=\x02\xc0'
p22
tp23
Rp24
ss.(dp0
S'left22.jpg'
p1
(dp2
S'yaw'
p3
cnumpy.core.multiarray
scalar
p4
(cnumpy
dtype
p5
(S'f8'
p6
I0
I1
tp7
Rp8
(I3
S'<'
p9
NNNI-1
I-1
I0
tp10
bS'H\xf9u\x10\xa7\x83\xba\xbf'
p11
tp12
Rp13
sS'pitch'
p14
g4
(g8
S'\x8b \xbc\x08\xda\x02\xf4?'
p15
tp16
Rp17
sS'y'
p18
F0.06781420890680165
sS'x'
p19
F-0.14130071887220827
sS'z'
p20
F-0.12702795049717705
sS'roll'
p21
g4
(g8
S'\xea\xb7\x17\xbcb(\x02\xc0'
p22
tp23
Rp24
ss.(dp0
S'left23.jpg'
p1
(dp2
S'yaw'
p3
cnumpy.core.multiarray
scalar
p4
(cnumpy
dtype
p5
(S'f8'
p6
I0
I1
tp7
Rp8
(I3
S'<'
p9
NNNI-1
I-1
I0
tp10
bS'\x98\xc4\x95\xe3\ro\xb7\xbf'
p11
tp12
Rp13
sS'pitch'
p14
g4
(g8
S'<l\x8fR\xcf"\xf3?'
p15
tp16
Rp17
sS'y'
p18
F0.06507897170902031
sS'x'
p19
F-0.1287029288718401
sS'z'
p20
F-0.1290142244115595
sS'roll'
p21
g4
(g8
S'G\xaf\x84J\xd0\x0c\x02\xc0'
p22
tp23
Rp24
ss.(dp0
S'left24.jpg'
p1
(dp2
S'yaw'
p3
cnumpy.core.multiarray
scalar
p4
(cnumpy
dtype
p5
(S'f8'
p6
I0
I1
tp7
Rp8
(I3
S'<'
p9
NNNI-1
I-1
I0
tp10
bS'\xaa^\xd2?@\xf1\xb6\xbf'
p11
tp12
Rp13
sS'pitch'
p14
g4
(g8
S'\xed\xe3\xb5\xa5SF\xf2?'
p15
tp16
Rp17
sS'y'
p18
F0.06201306529781375
sS'x'
p19
F-0.11667239340990797
sS'z'
p20
F-0.13031457231268145
sS'roll'
p21
g4
(g8
S'\x87\xf2|K\x0c\x07\x02\xc0'
p22
tp23
Rp24
ss.