(dp0
S'psm_data/left0.jpg'
p1
(dp2
S'yaw'
p3
cnumpy.core.multiarray
scalar
p4
(cnumpy
dtype
p5
(S'f8'
p6
I0
I1
tp7
Rp8
(I3
S'<'
p9
NNNI-1
I-1
I0
tp10
bS'\xc61O\\\xfd\x16\x08@'
p11
tp12
Rp13
sS'pitch'
p14
g4
(g8
S'\xd4\xf4\xfe\x84\xec?\xc5\xbf'
p15
tp16
Rp17
sS'y'
p18
F0.018292601462026242
sS'x'
p19
F-0.12839317285548754
sS'z'
p20
F-0.12404233809739554
sS'roll'
p21
g4
(g8
S'\x96n3\xcbc\xd1\x08\xc0'
p22
tp23
Rp24
ss.(dp0
S'psm_data/left1.jpg'
p1
(dp2
S'yaw'
p3
cnumpy.core.multiarray
scalar
p4
(cnumpy
dtype
p5
(S'f8'
p6
I0
I1
tp7
Rp8
(I3
S'<'
p9
NNNI-1
I-1
I0
tp10
bS'\xb1\td{\x98\xcb\x07@'
p11
tp12
Rp13
sS'pitch'
p14
g4
(g8
S'\x81\xff\xc62[\xca\xcb\xbf'
p15
tp16
Rp17
sS'y'
p18
F0.021275030735150583
sS'x'
p19
F-0.14066646184079717
sS'z'
p20
F-0.12258381215229108
sS'roll'
p21
g4
(g8
S',w\xc9c,\x9c\x08\xc0'
p22
tp23
Rp24
ss.(dp0
S'psm_data/left2.jpg'
p1
(dp2
S'yaw'
p3
cnumpy.core.multiarray
scalar
p4
(cnumpy
dtype
p5
(S'f8'
p6
I0
I1
tp7
Rp8
(I3
S'<'
p9
NNNI-1
I-1
I0
tp10
bS'\xc6\xf0R\x00\xe8\x93\x06@'
p11
tp12
Rp13
sS'pitch'
p14
g4
(g8
S"'C\x04\x04%\x1b\xd0\xbf"
p15
tp16
Rp17
sS'y'
p18
F0.02490415794487398
sS'x'
p19
F-0.15224857569066008
sS'z'
p20
F-0.12066107992260136
sS'roll'
p21
g4
(g8
S'\xb1\x92\xbf\xfe8\x80\x07\xc0'
p22
tp23
Rp24
ss.(dp0
S'psm_data/left3.jpg'
p1
(dp2
S'yaw'
p3
cnumpy.core.multiarray
scalar
p4
(cnumpy
dtype
p5
(S'f8'
p6
I0
I1
tp7
Rp8
(I3
S'<'
p9
NNNI-1
I-1
I0
tp10
bS"\xbf^F\xc1'\xd9\x06@"
p11
tp12
Rp13
sS'pitch'
p14
g4
(g8
S'[\xbc\xe2\xbb\xbc\x18\xd3\xbf'
p15
tp16
Rp17
sS'y'
p18
F0.027439628575064604
sS'x'
p19
F-0.16414692991779845
sS'z'
p20
F-0.1189953314441228
sS'roll'
p21
g4
(g8
S'\x83\x83\x9f\x9e\xab\xc3\x07\xc0'
p22
tp23
Rp24
ss.(dp0
S'psm_data/left4.jpg'
p1
(dp2
S'yaw'
p3
cnumpy.core.multiarray
scalar
p4
(cnumpy
dtype
p5
(S'f8'
p6
I0
I1
tp7
Rp8
(I3
S'<'
p9
NNNI-1
I-1
I0
tp10
bS'\xdd#\xc2V\x83{\x07@'
p11
tp12
Rp13
sS'pitch'
p14
g4
(g8
S'\x03K\x04\xd5\xf7\xfb\xd5\xbf'
p15
tp16
Rp17
sS'y'
p18
F0.028954849244753608
sS'x'
p19
F-0.1760067852571193
sS'z'
p20
F-0.11710618264363634
sS'roll'
p21
g4
(g8
S'2X\x96i\x03b\x08\xc0'
p22
tp23
Rp24
ss.(dp0
S'psm_data/left5.jpg'
p1
(dp2
S'yaw'
p3
cnumpy.core.multiarray
scalar
p4
(cnumpy
dtype
p5
(S'f8'
p6
I0
I1
tp7
Rp8
(I3
S'<'
p9
NNNI-1
I-1
I0
tp10
bS'N\xe4\xd4X\x02\xca\x06@'
p11
tp12
Rp13
sS'pitch'
p14
g4
(g8
S'_\xdd\x7f^\xaf\x93\xc5\xbf'
p15
tp16
Rp17
sS'y'
p18
F0.030550456326080798
sS'x'
p19
F-0.12693588083414564
sS'z'
p20
F-0.12412531954684897
sS'roll'
p21
g4
(g8
S']\xc6\x9a\x1f0W\x08\xc0'
p22
tp23
Rp24
ss.(dp0
S'psm_data/left6.jpg'
p1
(dp2
S'yaw'
p3
cnumpy.core.multiarray
scalar
p4
(cnumpy
dtype
p5
(S'f8'
p6
I0
I1
tp7
Rp8
(I3
S'<'
p9
NNNI-1
I-1
I0
tp10
bS'\x8f\xf1g\x81\x0eY\x06@'
p11
tp12
Rp13
sS'pitch'
p14
g4
(g8
S'Z\x0e\xcac\xc7_\xcb\xbf'
p15
tp16
Rp17
sS'y'
p18
F0.03368812772904837
sS'x'
p19
F-0.13838707701515462
sS'z'
p20
F-0.12235523835008229
sS'roll'
p21
g4
(g8
S'\xdb_>|\xa0\xec\x07\xc0'
p22
tp23
Rp24
ss.(dp0
S'psm_data/left7.jpg'
p1
(dp2
S'yaw'
p3
cnumpy.core.multiarray
scalar
p4
(cnumpy
dtype
p5
(S'f8'
p6
I0
I1
tp7
Rp8
(I3
S'<'
p9
NNNI-1
I-1
I0
tp10
bS'/\x16M\xf6\x97\xa2\x05@'
p11
tp12
Rp13
sS'pitch'
p14
g4
(g8
S'~ \x9f\x7fb\x83\xcf\xbf'
p15
tp16
Rp17
sS'y'
p18
F0.03677982703980943
sS'x'
p19
F-0.14935576080950372
sS'z'
p20
F-0.12028914907450729
sS'roll'
p21
g4
(g8
S'\xa1\xed(8\xf95\x07\xc0'
p22
tp23
Rp24
ss.(dp0
S'psm_data/left8.jpg'
p1
(dp2
S'yaw'
p3
cnumpy.core.multiarray
scalar
p4
(cnumpy
dtype
p5
(S'f8'
p6
I0
I1
tp7
Rp8
(I3
S'<'
p9
NNNI-1
I-1
I0
tp10
bS'\xc9"6\xe9\x86\xc2\x05@'
p11
tp12
Rp13
sS'pitch'
p14
g4
(g8
S'\xe7*\xcd\x8ehj\xd2\xbf'
p15
tp16
Rp17
sS'y'
p18
F0.03903816212162044
sS'x'
p19
F-0.1614268515884271
sS'z'
p20
F-0.11921464332723311
sS'roll'
p21
g4
(g8
S'\xa3bek\x7f@\x07\xc0'
p22
tp23
Rp24
ss.(dp0
S'psm_data/left9.jpg'
p1
(dp2
S'yaw'
p3
cnumpy.core.multiarray
scalar
p4
(cnumpy
dtype
p5
(S'f8'
p6
I0
I1
tp7
Rp8
(I3
S'<'
p9
NNNI-1
I-1
I0
tp10
bS'\x97\x9a2#6d\x05@'
p11
tp12
Rp13
sS'pitch'
p14
g4
(g8
S'q\x11\xb6\x8e\xd1\x88\xd4\xbf'
p15
tp16
Rp17
sS'y'
p18
F0.04218511073805944
sS'x'
p19
F-0.17328403671949602
sS'z'
p20
F-0.11653507681808853
sS'roll'
p21
g4
(g8
S'\xf6\xc5X\xc9@\xd4\x06\xc0'
p22
tp23
Rp24
ss.(dp0
S'psm_data/left10.jpg'
p1
(dp2
S'yaw'
p3
cnumpy.core.multiarray
scalar
p4
(cnumpy
dtype
p5
(S'f8'
p6
I0
I1
tp7
Rp8
(I3
S'<'
p9
NNNI-1
I-1
I0
tp10
bS'%\xfc\x99\x9c\xf5\x07\x06@'
p11
tp12
Rp13
sS'pitch'
p14
g4
(g8
S'1&D\xc4\xe3\x15\xc6\xbf'
p15
tp16
Rp17
sS'y'
p18
F0.04290449795708172
sS'x'
p19
F-0.1244053965418687
sS'z'
p20
F-0.12425856758421307
sS'roll'
p21
g4
(g8
S'\xae\xde:\x1f^[\x08\xc0'
p22
tp23
Rp24
ss.(dp0
S'psm_data/left11.jpg'
p1
(dp2
S'yaw'
p3
cnumpy.core.multiarray
scalar
p4
(cnumpy
dtype
p5
(S'f8'
p6
I0
I1
tp7
Rp8
(I3
S'<'
p9
NNNI-1
I-1
I0
tp10
bS'dZU\xc1\xefa\x04@'
p11
tp12
Rp13
sS'pitch'
p14
g4
(g8
S'\xbd\xa8A\xe9\xfd\xed\xc8\xbf'
p15
tp16
Rp17
sS'y'
p18
F0.046465652297763504
sS'x'
p19
F-0.13618823040977085
sS'z'
p20
F-0.12156503951275506
sS'roll'
p21
g4
(g8
S"\x93\x7f\xc5'\x8b\xbe\x06\xc0"
p22
tp23
Rp24
ss.(dp0
S'psm_data/left12.jpg'
p1
(dp2
S'yaw'
p3
cnumpy.core.multiarray
scalar
p4
(cnumpy
dtype
p5
(S'f8'
p6
I0
I1
tp7
Rp8
(I3
S'<'
p9
NNNI-1
I-1
I0
tp10
bS'}\x94\x07\x8f\xfbI\x05@'
p11
tp12
Rp13
sS'pitch'
p14
g4
(g8
S'/\xf6\xd5o\xed\x96\xd0\xbf'
p15
tp16
Rp17
sS'y'
p18
F0.04845580350915768
sS'x'
p19
F-0.14725006193529322
sS'z'
p20
F-0.12039923525924623
sS'roll'
p21
g4
(g8
S'J\xcbe\xb0\x85\x83\x07\xc0'
p22
tp23
Rp24
ss.(dp0
S'psm_data/left13.jpg'
p1
(dp2
S'yaw'
p3
cnumpy.core.multiarray
scalar
p4
(cnumpy
dtype
p5
(S'f8'
p6
I0
I1
tp7
Rp8
(I3
S'<'
p9
NNNI-1
I-1
I0
tp10
bS'\xabt\x8f\xdf\x05\xa0\x06@'
p11
tp12
Rp13
sS'pitch'
p14
g4
(g8
S'!\xa5I\xcb\xbc\xbb\xd3\xbf'
p15
tp16
Rp17
sS'y'
p18
F0.050119269519664424
sS'x'
p19
F-0.1590749252066924
sS'z'
p20
F-0.1198391550230978
sS'roll'
p21
g4
(g8
S'\x8b\xf2\xfd|\xf6\xbb\x08\xc0'
p22
tp23
Rp24
ss.(dp0
S'psm_data/left14.jpg'
p1
(dp2
S'yaw'
p3
cnumpy.core.multiarray
scalar
p4
(cnumpy
dtype
p5
(S'f8'
p6
I0
I1
tp7
Rp8
(I3
S'<'
p9
NNNI-1
I-1
I0
tp10
bS'\x08eR<S\xdf\x05@'
p11
tp12
Rp13
sS'pitch'
p14
g4
(g8
S'-\x10.\xbaWz\xd6\xbf'
p15
tp16
Rp17
sS'y'
p18
F0.053430712012169944
sS'x'
p19
F-0.1712751032670179
sS'z'
p20
F-0.11657238801317255
sS'roll'
p21
g4
(g8
S'\xf5\x11\xe6\xba\\\xf2\x07\xc0'
p22
tp23
Rp24
ss.(dp0
S'psm_data/left15.jpg'
p1
(dp2
S'yaw'
p3
cnumpy.core.multiarray
scalar
p4
(cnumpy
dtype
p5
(S'f8'
p6
I0
I1
tp7
Rp8
(I3
S'<'
p9
NNNI-1
I-1
I0
tp10
bS'\xf2\x92\x80[\xf2\xd6\x02@'
p11
tp12
Rp13
sS'pitch'
p14
g4
(g8
S'\x87\xa7Ep\xe8\x9b\xc3\xbf'
p15
tp16
Rp17
sS'y'
p18
F0.055464450029476794
sS'x'
p19
F-0.12072612250275706
sS'z'
p20
F-0.12390448408289732
sS'roll'
p21
g4
(g8
S'\xf9\x1d\xab\xf5[x\x06\xc0'
p22
tp23
Rp24
ss.(dp0
S'psm_data/left16.jpg'
p1
(dp2
S'yaw'
p3
cnumpy.core.multiarray
scalar
p4
(cnumpy
dtype
p5
(S'f8'
p6
I0
I1
tp7
Rp8
(I3
S'<'
p9
NNNI-1
I-1
I0
tp10
bS'\xc8\t1~p\x1c\x03@'
p11
tp12
Rp13
sS'pitch'
p14
g4
(g8
S'+9\xe3\x03+\xfb\xca\xbf'
p15
tp16
Rp17
sS'y'
p18
F0.05855615695330585
sS'x'
p19
F-0.13242926528393256
sS'z'
p20
F-0.12102448591802019
sS'roll'
p21
g4
(g8
S'\xeb\x03\x85\x92$}\x06\xc0'
p22
tp23
Rp24
ss.(dp0
S'psm_data/left17.jpg'
p1
(dp2
S'yaw'
p3
cnumpy.core.multiarray
scalar
p4
(cnumpy
dtype
p5
(S'f8'
p6
I0
I1
tp7
Rp8
(I3
S'<'
p9
NNNI-1
I-1
I0
tp10
bS'8\xe4\xe1\x87_\x8c\x03@'
p11
tp12
Rp13
sS'pitch'
p14
g4
(g8
S'\x07v\xfa&X\xf8\xd0\xbf'
p15
tp16
Rp17
sS'y'
p18
F0.06101675712640765
sS'x'
p19
F-0.14459180858927376
sS'z'
p20
F-0.11941652708138568
sS'roll'
p21
g4
(g8
S'\xd3gAr\xf2\xad\x06\xc0'
p22
tp23
Rp24
ss.(dp0
S'psm_data/left18.jpg'
p1
(dp2
S'yaw'
p3
cnumpy.core.multiarray
scalar
p4
(cnumpy
dtype
p5
(S'f8'
p6
I0
I1
tp7
Rp8
(I3
S'<'
p9
NNNI-1
I-1
I0
tp10
bS'\xc0m\xca\xc5\x1d\xb0\x03@'
p11
tp12
Rp13
sS'pitch'
p14
g4
(g8
S'M(\x87\xb3!\x8c\xd3\xbf'
p15
tp16
Rp17
sS'y'
p18
F0.06387588039288906
sS'x'
p19
F-0.1559965989883414
sS'z'
p20
F-0.11786232031839021
sS'roll'
p21
g4
(g8
S'\x89\x06\xa4\x18k\xa9\x06\xc0'
p22
tp23
Rp24
ss.(dp0
S'psm_data/left19.jpg'
p1
(dp2
S'yaw'
p3
cnumpy.core.multiarray
scalar
p4
(cnumpy
dtype
p5
(S'f8'
p6
I0
I1
tp7
Rp8
(I3
S'<'
p9
NNNI-1
I-1
I0
tp10
bS'\x82\xac\x1e\xc8\xd1\\\x03@'
p11
tp12
Rp13
sS'pitch'
p14
g4
(g8
S'\xd0\x97N\xf4P\xce\xd4\xbf'
p15
tp16
Rp17
sS'y'
p18
F0.06698763263119031
sS'x'
p19
F-0.16712889468950626
sS'z'
p20
F-0.11634500000108916
sS'roll'
p21
g4
(g8
S'\xf4\x96e\x87\xbb4\x06\xc0'
p22
tp23
Rp24
ss.(dp0
S'psm_data/left20.jpg'
p1
(dp2
S'yaw'
p3
cnumpy.core.multiarray
scalar
p4
(cnumpy
dtype
p5
(S'f8'
p6
I0
I1
tp7
Rp8
(I3
S'<'
p9
NNNI-1
I-1
I0
tp10
bS'\xa1\xf0\x93\xba\xcc\xa2\x02@'
p11
tp12
Rp13
sS'pitch'
p14
g4
(g8
S'\xder-/r\r\xc8\xbf'
p15
tp16
Rp17
sS'y'
p18
F0.06768963516525525
sS'x'
p19
F-0.1188397593257453
sS'z'
p20
F-0.12313982324281612
sS'roll'
p21
g4
(g8
S'F\xe8\x98\xbd\xb3\xdf\x06\xc0'
p22
tp23
Rp24
ss.(dp0
S'psm_data/left21.jpg'
p1
(dp2
S'yaw'
p3
cnumpy.core.multiarray
scalar
p4
(cnumpy
dtype
p5
(S'f8'
p6
I0
I1
tp7
Rp8
(I3
S'<'
p9
NNNI-1
I-1
I0
tp10
bS'\xa0\x9c\x924\xb3c\x02@'
p11
tp12
Rp13
sS'pitch'
p14
g4
(g8
S'\xd3\xf0\xee/3\xc2\xcb\xbf'
p15
tp16
Rp17
sS'y'
p18
F0.07097513842977694
sS'x'
p19
F-0.1296801411242527
sS'z'
p20
F-0.12137547979552057
sS'roll'
p21
g4
(g8
S'\xb2-\xfc-\xefm\x06\xc0'
p22
tp23
Rp24
ss.(dp0
S'psm_data/left22.jpg'
p1
(dp2
S'yaw'
p3
cnumpy.core.multiarray
scalar
p4
(cnumpy
dtype
p5
(S'f8'
p6
I0
I1
tp7
Rp8
(I3
S'<'
p9
NNNI-1
I-1
I0
tp10
bS'l\xa0\xe3\x90\x1dT\x02@'
p11
tp12
Rp13
sS'pitch'
p14
g4
(g8
S'2w}\x8d\x15\xf0\xcf\xbf'
p15
tp16
Rp17
sS'y'
p18
F0.07337056014432675
sS'x'
p19
F-0.14079734636043223
sS'z'
p20
F-0.1188252433089228
sS'roll'
p21
g4
(g8
S'\x8b\xa1\x10+\xb7\x1c\x06\xc0'
p22
tp23
Rp24
ss.(dp0
S'psm_data/left23.jpg'
p1
(dp2
S'yaw'
p3
cnumpy.core.multiarray
scalar
p4
(cnumpy
dtype
p5
(S'f8'
p6
I0
I1
tp7
Rp8
(I3
S'<'
p9
NNNI-1
I-1
I0
tp10
bS'S|!\xa4\xa2a\x02@'
p11
tp12
Rp13
sS'pitch'
p14
g4
(g8
S'\xbb\xb5\xfb\x05:*\xd2\xbf'
p15
tp16
Rp17
sS'y'
p18
F0.07637529637172517
sS'x'
p19
F-0.1525939061894936
sS'z'
p20
F-0.11727472076288538
sS'roll'
p21
g4
(g8
S'\x15\xcc}\xfc\x12\xf1\x05\xc0'
p22
tp23
Rp24
ss.(dp0
S'psm_data/left24.jpg'
p1
(dp2
S'yaw'
p3
cnumpy.core.multiarray
scalar
p4
(cnumpy
dtype
p5
(S'f8'
p6
I0
I1
tp7
Rp8
(I3
S'<'
p9
NNNI-1
I-1
I0
tp10
bS'M\xcdr\xb5\x8d{\x01@'
p11
tp12
Rp13
sS'pitch'
p14
g4
(g8
S'\xdc;I\xd4\r\xad\xd0\xbf'
p15
tp16
Rp17
sS'y'
p18
F0.07926248115249054
sS'x'
p19
F-0.1645940301844291
sS'z'
p20
F-0.11522625069227146
sS'roll'
p21
g4
(g8
S'x.\xd57h\xcb\x04\xc0'
p22
tp23
Rp24
ss.