(dp0
S'psm_data/right0.jpg'
p1
(dp2
S'yaw'
p3
cnumpy.core.multiarray
scalar
p4
(cnumpy
dtype
p5
(S'f8'
p6
I0
I1
tp7
Rp8
(I3
S'<'
p9
NNNI-1
I-1
I0
tp10
bS'\x0en;q\xa3\xbd\x07\xc0'
p11
tp12
Rp13
sS'pitch'
p14
g4
(g8
S'\xa4\xe0d\x82\xb2\xfe\xb3\xbf'
p15
tp16
Rp17
sS'y'
p18
F0.00018635771195259923
sS'x'
p19
F-0.0013474844310246482
sS'z'
p20
F-0.012534020249095017
sS'roll'
p21
g4
(g8
S'\xda\xfe\xe2\xeb\x87\x9b\x06@'
p22
tp23
Rp24
ss.