(dp0
S'psm_data/left0.jpg'
p1
(dp2
S'yaw'
p3
cnumpy.core.multiarray
scalar
p4
(cnumpy
dtype
p5
(S'f8'
p6
I0
I1
tp7
Rp8
(I3
S'<'
p9
NNNI-1
I-1
I0
tp10
bS'1\x159\x13\x9f\x18\t\xc0'
p11
tp12
Rp13
sS'pitch'
p14
g4
(g8
S'\x07J\xedE\xea\xfb\xc2\xbf'
p15
tp16
Rp17
sS'y'
p18
F-0.01685937267771601
sS'x'
p19
F-0.09715749556320179
sS'z'
p20
F-0.10711739305392626
sS'roll'
p21
g4
(g8
S'\xdd\xef\x9f\x11\x9b\xf5\x08@'
p22
tp23
Rp24
ss.(dp0
S'psm_data/left1.jpg'
p1
(dp2
S'yaw'
p3
cnumpy.core.multiarray
scalar
p4
(cnumpy
dtype
p5
(S'f8'
p6
I0
I1
tp7
Rp8
(I3
S'<'
p9
NNNI-1
I-1
I0
tp10
bS'1\x159\x13\x9f\x18\t\xc0'
p11
tp12
Rp13
sS'pitch'
p14
g4
(g8
S'\x07J\xedE\xea\xfb\xc2\xbf'
p15
tp16
Rp17
sS'y'
p18
F-0.01685937267771601
sS'x'
p19
F-0.09715749556320179
sS'z'
p20
F-0.10711739305392626
sS'roll'
p21
g4
(g8
S'\xdd\xef\x9f\x11\x9b\xf5\x08@'
p22
tp23
Rp24
ss.(dp0
S'psm_data/left2.jpg'
p1
(dp2
S'yaw'
p3
cnumpy.core.multiarray
scalar
p4
(cnumpy
dtype
p5
(S'f8'
p6
I0
I1
tp7
Rp8
(I3
S'<'
p9
NNNI-1
I-1
I0
tp10
bS'1\x159\x13\x9f\x18\t\xc0'
p11
tp12
Rp13
sS'pitch'
p14
g4
(g8
S'\x07J\xedE\xea\xfb\xc2\xbf'
p15
tp16
Rp17
sS'y'
p18
F-0.01685937267771601
sS'x'
p19
F-0.09715749556320179
sS'z'
p20
F-0.10711739305392626
sS'roll'
p21
g4
(g8
S'\xdd\xef\x9f\x11\x9b\xf5\x08@'
p22
tp23
Rp24
ss.(dp0
S'psm_data/left3.jpg'
p1
(dp2
S'yaw'
p3
cnumpy.core.multiarray
scalar
p4
(cnumpy
dtype
p5
(S'f8'
p6
I0
I1
tp7
Rp8
(I3
S'<'
p9
NNNI-1
I-1
I0
tp10
bS'1\x159\x13\x9f\x18\t\xc0'
p11
tp12
Rp13
sS'pitch'
p14
g4
(g8
S'\x07J\xedE\xea\xfb\xc2\xbf'
p15
tp16
Rp17
sS'y'
p18
F-0.01685937267771601
sS'x'
p19
F-0.09715749556320179
sS'z'
p20
F-0.10711739305392626
sS'roll'
p21
g4
(g8
S'\xdd\xef\x9f\x11\x9b\xf5\x08@'
p22
tp23
Rp24
ss.(dp0
S'psm_data/left4.jpg'
p1
(dp2
S'yaw'
p3
cnumpy.core.multiarray
scalar
p4
(cnumpy
dtype
p5
(S'f8'
p6
I0
I1
tp7
Rp8
(I3
S'<'
p9
NNNI-1
I-1
I0
tp10
bS'1\x159\x13\x9f\x18\t\xc0'
p11
tp12
Rp13
sS'pitch'
p14
g4
(g8
S'\x07J\xedE\xea\xfb\xc2\xbf'
p15
tp16
Rp17
sS'y'
p18
F-0.01685937267771601
sS'x'
p19
F-0.09715749556320179
sS'z'
p20
F-0.10711739305392626
sS'roll'
p21
g4
(g8
S'\xdd\xef\x9f\x11\x9b\xf5\x08@'
p22
tp23
Rp24
ss.(dp0
S'psm_data/left5.jpg'
p1
(dp2
S'yaw'
p3
cnumpy.core.multiarray
scalar
p4
(cnumpy
dtype
p5
(S'f8'
p6
I0
I1
tp7
Rp8
(I3
S'<'
p9
NNNI-1
I-1
I0
tp10
bS'1\x159\x13\x9f\x18\t\xc0'
p11
tp12
Rp13
sS'pitch'
p14
g4
(g8
S'\x07J\xedE\xea\xfb\xc2\xbf'
p15
tp16
Rp17
sS'y'
p18
F-0.01685937267771601
sS'x'
p19
F-0.09715749556320179
sS'z'
p20
F-0.10711739305392626
sS'roll'
p21
g4
(g8
S'\xdd\xef\x9f\x11\x9b\xf5\x08@'
p22
tp23
Rp24
ss.(dp0
S'psm_data/left6.jpg'
p1
(dp2
S'yaw'
p3
cnumpy.core.multiarray
scalar
p4
(cnumpy
dtype
p5
(S'f8'
p6
I0
I1
tp7
Rp8
(I3
S'<'
p9
NNNI-1
I-1
I0
tp10
bS'1\x159\x13\x9f\x18\t\xc0'
p11
tp12
Rp13
sS'pitch'
p14
g4
(g8
S'\x07J\xedE\xea\xfb\xc2\xbf'
p15
tp16
Rp17
sS'y'
p18
F-0.01685937267771601
sS'x'
p19
F-0.09715749556320179
sS'z'
p20
F-0.10711739305392626
sS'roll'
p21
g4
(g8
S'\xdd\xef\x9f\x11\x9b\xf5\x08@'
p22
tp23
Rp24
ss.(dp0
S'psm_data/left7.jpg'
p1
(dp2
S'yaw'
p3
cnumpy.core.multiarray
scalar
p4
(cnumpy
dtype
p5
(S'f8'
p6
I0
I1
tp7
Rp8
(I3
S'<'
p9
NNNI-1
I-1
I0
tp10
bS'1\x159\x13\x9f\x18\t\xc0'
p11
tp12
Rp13
sS'pitch'
p14
g4
(g8
S'\x07J\xedE\xea\xfb\xc2\xbf'
p15
tp16
Rp17
sS'y'
p18
F-0.01685937267771601
sS'x'
p19
F-0.09715749556320179
sS'z'
p20
F-0.10711739305392626
sS'roll'
p21
g4
(g8
S'\xdd\xef\x9f\x11\x9b\xf5\x08@'
p22
tp23
Rp24
ss.(dp0
S'psm_data/left8.jpg'
p1
(dp2
S'yaw'
p3
cnumpy.core.multiarray
scalar
p4
(cnumpy
dtype
p5
(S'f8'
p6
I0
I1
tp7
Rp8
(I3
S'<'
p9
NNNI-1
I-1
I0
tp10
bS'1\x159\x13\x9f\x18\t\xc0'
p11
tp12
Rp13
sS'pitch'
p14
g4
(g8
S'\x07J\xedE\xea\xfb\xc2\xbf'
p15
tp16
Rp17
sS'y'
p18
F-0.01685937267771601
sS'x'
p19
F-0.09715749556320179
sS'z'
p20
F-0.10711739305392626
sS'roll'
p21
g4
(g8
S'\xdd\xef\x9f\x11\x9b\xf5\x08@'
p22
tp23
Rp24
ss.(dp0
S'psm_data/left9.jpg'
p1
(dp2
S'yaw'
p3
cnumpy.core.multiarray
scalar
p4
(cnumpy
dtype
p5
(S'f8'
p6
I0
I1
tp7
Rp8
(I3
S'<'
p9
NNNI-1
I-1
I0
tp10
bS'1\x159\x13\x9f\x18\t\xc0'
p11
tp12
Rp13
sS'pitch'
p14
g4
(g8
S'\x07J\xedE\xea\xfb\xc2\xbf'
p15
tp16
Rp17
sS'y'
p18
F-0.01685937267771601
sS'x'
p19
F-0.09715749556320179
sS'z'
p20
F-0.10711739305392626
sS'roll'
p21
g4
(g8
S'\xdd\xef\x9f\x11\x9b\xf5\x08@'
p22
tp23
Rp24
ss.(dp0
S'psm_data/left10.jpg'
p1
(dp2
S'yaw'
p3
cnumpy.core.multiarray
scalar
p4
(cnumpy
dtype
p5
(S'f8'
p6
I0
I1
tp7
Rp8
(I3
S'<'
p9
NNNI-1
I-1
I0
tp10
bS'1\x159\x13\x9f\x18\t\xc0'
p11
tp12
Rp13
sS'pitch'
p14
g4
(g8
S'\x07J\xedE\xea\xfb\xc2\xbf'
p15
tp16
Rp17
sS'y'
p18
F-0.01685937267771601
sS'x'
p19
F-0.09715749556320179
sS'z'
p20
F-0.10711739305392626
sS'roll'
p21
g4
(g8
S'\xdd\xef\x9f\x11\x9b\xf5\x08@'
p22
tp23
Rp24
ss.(dp0
S'psm_data/left11.jpg'
p1
(dp2
S'yaw'
p3
cnumpy.core.multiarray
scalar
p4
(cnumpy
dtype
p5
(S'f8'
p6
I0
I1
tp7
Rp8
(I3
S'<'
p9
NNNI-1
I-1
I0
tp10
bS'1\x159\x13\x9f\x18\t\xc0'
p11
tp12
Rp13
sS'pitch'
p14
g4
(g8
S'\x07J\xedE\xea\xfb\xc2\xbf'
p15
tp16
Rp17
sS'y'
p18
F-0.01685937267771601
sS'x'
p19
F-0.09715749556320179
sS'z'
p20
F-0.10711739305392626
sS'roll'
p21
g4
(g8
S'\xdd\xef\x9f\x11\x9b\xf5\x08@'
p22
tp23
Rp24
ss.(dp0
S'psm_data/left12.jpg'
p1
(dp2
S'yaw'
p3
cnumpy.core.multiarray
scalar
p4
(cnumpy
dtype
p5
(S'f8'
p6
I0
I1
tp7
Rp8
(I3
S'<'
p9
NNNI-1
I-1
I0
tp10
bS'1\x159\x13\x9f\x18\t\xc0'
p11
tp12
Rp13
sS'pitch'
p14
g4
(g8
S'\x07J\xedE\xea\xfb\xc2\xbf'
p15
tp16
Rp17
sS'y'
p18
F-0.01685937267771601
sS'x'
p19
F-0.09715749556320179
sS'z'
p20
F-0.10711739305392626
sS'roll'
p21
g4
(g8
S'\xdd\xef\x9f\x11\x9b\xf5\x08@'
p22
tp23
Rp24
ss.(dp0
S'psm_data/left13.jpg'
p1
(dp2
S'yaw'
p3
cnumpy.core.multiarray
scalar
p4
(cnumpy
dtype
p5
(S'f8'
p6
I0
I1
tp7
Rp8
(I3
S'<'
p9
NNNI-1
I-1
I0
tp10
bS'1\x159\x13\x9f\x18\t\xc0'
p11
tp12
Rp13
sS'pitch'
p14
g4
(g8
S'\x07J\xedE\xea\xfb\xc2\xbf'
p15
tp16
Rp17
sS'y'
p18
F-0.01685937267771601
sS'x'
p19
F-0.09715749556320179
sS'z'
p20
F-0.10711739305392626
sS'roll'
p21
g4
(g8
S'\xdd\xef\x9f\x11\x9b\xf5\x08@'
p22
tp23
Rp24
ss.(dp0
S'psm_data/left14.jpg'
p1
(dp2
S'yaw'
p3
cnumpy.core.multiarray
scalar
p4
(cnumpy
dtype
p5
(S'f8'
p6
I0
I1
tp7
Rp8
(I3
S'<'
p9
NNNI-1
I-1
I0
tp10
bS'1\x159\x13\x9f\x18\t\xc0'
p11
tp12
Rp13
sS'pitch'
p14
g4
(g8
S'\x07J\xedE\xea\xfb\xc2\xbf'
p15
tp16
Rp17
sS'y'
p18
F-0.01685937267771601
sS'x'
p19
F-0.09715749556320179
sS'z'
p20
F-0.10711739305392626
sS'roll'
p21
g4
(g8
S'\xdd\xef\x9f\x11\x9b\xf5\x08@'
p22
tp23
Rp24
ss.(dp0
S'psm_data/left15.jpg'
p1
(dp2
S'yaw'
p3
cnumpy.core.multiarray
scalar
p4
(cnumpy
dtype
p5
(S'f8'
p6
I0
I1
tp7
Rp8
(I3
S'<'
p9
NNNI-1
I-1
I0
tp10
bS'1\x159\x13\x9f\x18\t\xc0'
p11
tp12
Rp13
sS'pitch'
p14
g4
(g8
S'\x07J\xedE\xea\xfb\xc2\xbf'
p15
tp16
Rp17
sS'y'
p18
F-0.01685937267771601
sS'x'
p19
F-0.09715749556320179
sS'z'
p20
F-0.10711739305392626
sS'roll'
p21
g4
(g8
S'\xdd\xef\x9f\x11\x9b\xf5\x08@'
p22
tp23
Rp24
ss.