(lp0
(cnumpy.core.multiarray
scalar
p1
(cnumpy
dtype
p2
(S'f8'
p3
I0
I1
tp4
Rp5
(I3
S'<'
p6
NNNI-1
I-1
I0
tp7
bS'{-\x17\xa5\x01={?'
p8
tp9
Rp10
g1
(g5
S'\x1e\\\xeb_Yj\x90\xbf'
p11
tp12
Rp13
g1
(g5
S'v8\xbaJw\xd7\xc1?'
p14
tp15
Rp16
tp17
a(g1
(g5
S'g\xfb\x95">\x85\x96?'
p18
tp19
Rp20
g1
(g5
S'\xdc&\x04\xb3\xec-\x86\xbf'
p21
tp22
Rp23
g1
(g5
S'v8\xbaJw\xd7\xc1?'
p24
tp25
Rp26
tp27
a.