(dp0
S'psm_data/left0.jpg'
p1
(dp2
S'yaw'
p3
cnumpy.core.multiarray
scalar
p4
(cnumpy
dtype
p5
(S'f8'
p6
I0
I1
tp7
Rp8
(I3
S'<'
p9
NNNI-1
I-1
I0
tp10
bS'\xf8\xf5\xe7\xbf\xa42\x03\xc0'
p11
tp12
Rp13
sS'pitch'
p14
g4
(g8
S'\xd3\xd38\xef\x13\xeb\xee\xbf'
p15
tp16
Rp17
sS'y'
p18
F0.018586232618872277
sS'x'
p19
F-0.12801005832043819
sS'z'
p20
F-0.13114029827121543
sS'roll'
p21
g4
(g8
S'\x94\xf6\xb9\x93\x8c\xc2\xfa?'
p22
tp23
Rp24
ss.(dp0
S'psm_data/left0.jpg'
p1
(dp2
S'yaw'
p3
cnumpy.core.multiarray
scalar
p4
(cnumpy
dtype
p5
(S'f8'
p6
I0
I1
tp7
Rp8
(I3
S'<'
p9
NNNI-1
I-1
I0
tp10
bS'\xf4\x0c\xfb\x842\xd5\x02\xc0'
p11
tp12
Rp13
sS'pitch'
p14
g4
(g8
S"f\x88'|\x0f\xb0\xef\xbf"
p15
tp16
Rp17
sS'y'
p18
F0.021506962680654256
sS'x'
p19
F-0.13797266302444364
sS'z'
p20
F-0.1306004285150619
sS'roll'
p21
g4
(g8
S'AsT\xf1k\xbb\xf9?'
p22
tp23
Rp24
ss.(dp0
S'psm_data/left0.jpg'
p1
(dp2
S'yaw'
p3
cnumpy.core.multiarray
scalar
p4
(cnumpy
dtype
p5
(S'f8'
p6
I0
I1
tp7
Rp8
(I3
S'<'
p9
NNNI-1
I-1
I0
tp10
bS'\xedjw\xeb\xa9\x85\x02\xc0'
p11
tp12
Rp13
sS'pitch'
p14
g4
(g8
S'"h\x94E{|\xf0\xbf'
p15
tp16
Rp17
sS'y'
p18
F0.023747931026956173
sS'x'
p19
F-0.14862945186959148
sS'z'
p20
F-0.12929689374744016
sS'roll'
p21
g4
(g8
S'\xcb\x8a\xda\xac\x95\xab\xf8?'
p22
tp23
Rp24
ss.(dp0
S'psm_data/left0.jpg'
p1
(dp2
S'yaw'
p3
cnumpy.core.multiarray
scalar
p4
(cnumpy
dtype
p5
(S'f8'
p6
I0
I1
tp7
Rp8
(I3
S'<'
p9
NNNI-1
I-1
I0
tp10
bS'\x06\x8b\xec>go\x03\xc0'
p11
tp12
Rp13
sS'pitch'
p14
g4
(g8
S'?\x84\xdfw\xb75\xf2\xbf'
p15
tp16
Rp17
sS'y'
p18
F0.025064594689041715
sS'x'
p19
F-0.16017990658020945
sS'z'
p20
F-0.126333472984944
sS'roll'
p21
g4
(g8
S'\x8d\x18\xc6T\x84W\xf9?'
p22
tp23
Rp24
ss.(dp0
S'psm_data/left0.jpg'
p1
(dp2
S'yaw'
p3
cnumpy.core.multiarray
scalar
p4
(cnumpy
dtype
p5
(S'f8'
p6
I0
I1
tp7
Rp8
(I3
S'<'
p9
NNNI-1
I-1
I0
tp10
bS'\x13\xfb\xa50\xcc\x03\x03\xc0'
p11
tp12
Rp13
sS'pitch'
p14
g4
(g8
S'g\xe34\x16\x12\x9a\xf2\xbf'
p15
tp16
Rp17
sS'y'
p18
F0.02750026614219865
sS'x'
p19
F-0.17041514565404392
sS'z'
p20
F-0.12618106277185853
sS'roll'
p21
g4
(g8
S'\xf5;t\xf0eF\xf8?'
p22
tp23
Rp24
ss.(dp0
S'psm_data/left0.jpg'
p1
(dp2
S'yaw'
p3
cnumpy.core.multiarray
scalar
p4
(cnumpy
dtype
p5
(S'f8'
p6
I0
I1
tp7
Rp8
(I3
S'<'
p9
NNNI-1
I-1
I0
tp10
bS'5(\x06\xa0\xf47\x05\xc0'
p11
tp12
Rp13
sS'pitch'
p14
g4
(g8
S'\x9c\xa5\xa4\x0e!\xaf\xf0\xbf'
p15
tp16
Rp17
sS'y'
p18
F0.028692499445085128
sS'x'
p19
F-0.12572456266911253
sS'z'
p20
F-0.1316894241512242
sS'roll'
p21
g4
(g8
S'v\xf4\x7f\xb8\x88%\xfc?'
p22
tp23
Rp24
ss.(dp0
S'psm_data/left0.jpg'
p1
(dp2
S'yaw'
p3
cnumpy.core.multiarray
scalar
p4
(cnumpy
dtype
p5
(S'f8'
p6
I0
I1
tp7
Rp8
(I3
S'<'
p9
NNNI-1
I-1
I0
tp10
bS'\xb0 \xbf\xfbO\xca\x04\xc0'
p11
tp12
Rp13
sS'pitch'
p14
g4
(g8
S'+-LZ\x15h\xf1\xbf'
p15
tp16
Rp17
sS'y'
p18
F0.03098072093653961
sS'x'
p19
F-0.13680959648285124
sS'z'
p20
F-0.13080381232847224
sS'roll'
p21
g4
(g8
S'\xa3\xf7\x15\xad\xa1\x08\xfb?'
p22
tp23
Rp24
ss.(dp0
S'psm_data/left0.jpg'
p1
(dp2
S'yaw'
p3
cnumpy.core.multiarray
scalar
p4
(cnumpy
dtype
p5
(S'f8'
p6
I0
I1
tp7
Rp8
(I3
S'<'
p9
NNNI-1
I-1
I0
tp10
bS'"\xcac\xf0\x1d7\x04\xc0'
p11
tp12
Rp13
sS'pitch'
p14
g4
(g8
S'\x0c\xf1\x0c\x84\x94 \xf2\xbf'
p15
tp16
Rp17
sS'y'
p18
F0.03427731497938644
sS'x'
p19
F-0.14748811815857946
sS'z'
p20
F-0.12926143114101715
sS'roll'
p21
g4
(g8
S'\x1d\xdb\xfaC\x90x\xf9?'
p22
tp23
Rp24
ss.(dp0
S'psm_data/left0.jpg'
p1
(dp2
S'yaw'
p3
cnumpy.core.multiarray
scalar
p4
(cnumpy
dtype
p5
(S'f8'
p6
I0
I1
tp7
Rp8
(I3
S'<'
p9
NNNI-1
I-1
I0
tp10
bS'\xc3\xd4\xb4.\xcb\x8f\x00\xc0'
p11
tp12
Rp13
sS'pitch'
p14
g4
(g8
S'\xc6\xddE?\x02\xfb\xf6\xbf'
p15
tp16
Rp17
sS'y'
p18
F0.034512848879970595
sS'x'
p19
F-0.16057838911379407
sS'z'
p20
F-0.12598023203518524
sS'roll'
p21
g4
(g8
S'\r\xc3\xa3\x0e\xd5\xc8\xeb?'
p22
tp23
Rp24
ss.(dp0
S'psm_data/left0.jpg'
p1
(dp2
S'yaw'
p3
cnumpy.core.multiarray
scalar
p4
(cnumpy
dtype
p5
(S'f8'
p6
I0
I1
tp7
Rp8
(I3
S'<'
p9
NNNI-1
I-1
I0
tp10
bS'\x1f=_i\xfdm\x07\xc0'
p11
tp12
Rp13
sS'pitch'
p14
g4
(g8
S'\xf1J\x87\x16\x03b\xf4\xbf'
p15
tp16
Rp17
sS'y'
p18
F0.03813013497113793
sS'x'
p19
F-0.16959451074800694
sS'z'
p20
F-0.12493271162313344
sS'roll'
p21
g4
(g8
S"V'hSQ\x8d\xfe?"
p22
tp23
Rp24
ss.(dp0
S'psm_data/left0.jpg'
p1
(dp2
S'yaw'
p3
cnumpy.core.multiarray
scalar
p4
(cnumpy
dtype
p5
(S'f8'
p6
I0
I1
tp7
Rp8
(I3
S'<'
p9
NNNI-1
I-1
I0
tp10
bS'\xd4\xcf\x19\x062\xf3\x08\xc0'
p11
tp12
Rp13
sS'pitch'
p14
g4
(g8
S'\xd8\xdd\x19\xcb\xbc\xf8\xf1\xbf'
p15
tp16
Rp17
sS'y'
p18
F0.038824125591571314
sS'x'
p19
F-0.1263055684863243
sS'z'
p20
F-0.130212294101719
sS'roll'
p21
g4
(g8
S'\x87\xf0\xba\xd8\x94Q\x00@'
p22
tp23
Rp24
ss.(dp0
S'psm_data/left0.jpg'
p1
(dp2
S'yaw'
p3
cnumpy.core.multiarray
scalar
p4
(cnumpy
dtype
p5
(S'f8'
p6
I0
I1
tp7
Rp8
(I3
S'<'
p9
NNNI-1
I-1
I0
tp10
bS'\x96\xe9\x1f\x10\xed\x14\x08\xc0'
p11
tp12
Rp13
sS'pitch'
p14
g4
(g8
S'\xf0\xb83\xd5\x80\x82\xf2\xbf'
p15
tp16
Rp17
sS'y'
p18
F0.0416338079594501
sS'x'
p19
F-0.1358531824273292
sS'z'
p20
F-0.1280008499460991
sS'roll'
p21
g4
(g8
S'O\x9c:\xedF%\xff?'
p22
tp23
Rp24
ss.(dp0
S'psm_data/left0.jpg'
p1
(dp2
S'yaw'
p3
cnumpy.core.multiarray
scalar
p4
(cnumpy
dtype
p5
(S'f8'
p6
I0
I1
tp7
Rp8
(I3
S'<'
p9
NNNI-1
I-1
I0
tp10
bS',\xe1\xf9\x99fZ\x07\xc0'
p11
tp12
Rp13
sS'pitch'
p14
g4
(g8
S'\xca\xa0\xb8{&\xfa\xf2\xbf'
p15
tp16
Rp17
sS'y'
p18
F0.04344530186430617
sS'x'
p19
F-0.14684526235672707
sS'z'
p20
F-0.12757670657869807
sS'roll'
p21
g4
(g8
S'?\x0c\x12\x16\x1c\xef\xfd?'
p22
tp23
Rp24
ss.(dp0
S'psm_data/left0.jpg'
p1
(dp2
S'yaw'
p3
cnumpy.core.multiarray
scalar
p4
(cnumpy
dtype
p5
(S'f8'
p6
I0
I1
tp7
Rp8
(I3
S'<'
p9
NNNI-1
I-1
I0
tp10
bS'\xb8\x0c\x8d\xe0\xe6\xf7\x06\xc0'
p11
tp12
Rp13
sS'pitch'
p14
g4
(g8
S'\xe4\xf2\xb41\x83\x9c\xf3\xbf'
p15
tp16
Rp17
sS'y'
p18
F0.0465520366630289
sS'x'
p19
F-0.15840853771797905
sS'z'
p20
F-0.12595417849209536
sS'roll'
p21
g4
(g8
S'\xd6\xccv".\x15\xfd?'
p22
tp23
Rp24
ss.(dp0
S'psm_data/left0.jpg'
p1
(dp2
S'yaw'
p3
cnumpy.core.multiarray
scalar
p4
(cnumpy
dtype
p5
(S'f8'
p6
I0
I1
tp7
Rp8
(I3
S'<'
p9
NNNI-1
I-1
I0
tp10
bS'\x0b\xeca.\xee\x98\x06\xc0'
p11
tp12
Rp13
sS'pitch'
p14
g4
(g8
S'\x06\xcd\xe7\xaa\x7f\x16\xf4\xbf'
p15
tp16
Rp17
sS'y'
p18
F0.048540218391012836
sS'x'
p19
F-0.1667677708627942
sS'z'
p20
F-0.1252837467412821
sS'roll'
p21
g4
(g8
S'\t\x81\xd4\xb0\x95?\xfc?'
p22
tp23
Rp24
ss.(dp0
S'psm_data/left0.jpg'
p1
(dp2
S'yaw'
p3
cnumpy.core.multiarray
scalar
p4
(cnumpy
dtype
p5
(S'f8'
p6
I0
I1
tp7
Rp8
(I3
S'<'
p9
NNNI-1
I-1
I0
tp10
bS'\xf3aR\xc3\x9f3\x07\xc0'
p11
tp12
Rp13
sS'pitch'
p14
g4
(g8
S'+\xf6\x10\x99:E\xf1\xbf'
p15
tp16
Rp17
sS'y'
p18
F0.04991164637299789
sS'x'
p19
F-0.12312398491906948
sS'z'
p20
F-0.13139596134065315
sS'roll'
p21
g4
(g8
S'q\x02^\xd6L\x01\xfd?'
p22
tp23
Rp24
ss.(dp0
S'psm_data/left0.jpg'
p1
(dp2
S'yaw'
p3
cnumpy.core.multiarray
scalar
p4
(cnumpy
dtype
p5
(S'f8'
p6
I0
I1
tp7
Rp8
(I3
S'<'
p9
NNNI-1
I-1
I0
tp10
bS'\x01\xd9\xd9\xaa\x0f\xb9\x06\xc0'
p11
tp12
Rp13
sS'pitch'
p14
g4
(g8
S'{\xb9\xd2 \x8a\xe5\xf1\xbf'
p15
tp16
Rp17
sS'y'
p18
F0.05209347837194775
sS'x'
p19
F-0.1338401654749852
sS'z'
p20
F-0.1296017725601009
sS'roll'
p21
g4
(g8
S'\xec\x8b\xeag\r \xfc?'
p22
tp23
Rp24
ss.(dp0
S'psm_data/left0.jpg'
p1
(dp2
S'yaw'
p3
cnumpy.core.multiarray
scalar
p4
(cnumpy
dtype
p5
(S'f8'
p6
I0
I1
tp7
Rp8
(I3
S'<'
p9
NNNI-1
I-1
I0
tp10
bS'\x0e\xc5\x16\x7f\x11I\x06\xc0'
p11
tp12
Rp13
sS'pitch'
p14
g4
(g8
S'\xa4\xd5r\xa4\x06|\xf2\xbf'
p15
tp16
Rp17
sS'y'
p18
F0.054286947661594226
sS'x'
p19
F-0.14408560732419048
sS'z'
p20
F-0.12794620627970446
sS'roll'
p21
g4
(g8
S'P~(\xfe9A\xfb?'
p22
tp23
Rp24
ss.(dp0
S'psm_data/left0.jpg'
p1
(dp2
S'yaw'
p3
cnumpy.core.multiarray
scalar
p4
(cnumpy
dtype
p5
(S'f8'
p6
I0
I1
tp7
Rp8
(I3
S'<'
p9
NNNI-1
I-1
I0
tp10
bS'\xf6\x9cL\xea\x07\xd2\x05\xc0'
p11
tp12
Rp13
sS'pitch'
p14
g4
(g8
S"p\x06\xdc1\x1f'\xf3\xbf"
p15
tp16
Rp17
sS'y'
p18
F0.05631682853416042
sS'x'
p19
F-0.15432727727081516
sS'z'
p20
F-0.1265236673539403
sS'roll'
p21
g4
(g8
S'Zh\x92\x0c\xb34\xfa?'
p22
tp23
Rp24
ss.(dp0
S'psm_data/left0.jpg'
p1
(dp2
S'yaw'
p3
cnumpy.core.multiarray
scalar
p4
(cnumpy
dtype
p5
(S'f8'
p6
I0
I1
tp7
Rp8
(I3
S'<'
p9
NNNI-1
I-1
I0
tp10
bS'\x97\xef{\x8cg2\x06\xc0'
p11
tp12
Rp13
sS'pitch'
p14
g4
(g8
S'\x07\xddP a\x15\xf4\xbf'
p15
tp16
Rp17
sS'y'
p18
F0.05874635015760912
sS'x'
p19
F-0.16499945550445222
sS'z'
p20
F-0.12481303601765784
sS'roll'
p21
g4
(g8
S'\xa0\xbdw\xccZ\x92\xfa?'
p22
tp23
Rp24
ss.(dp0
S'psm_data/left0.jpg'
p1
(dp2
S'yaw'
p3
cnumpy.core.multiarray
scalar
p4
(cnumpy
dtype
p5
(S'f8'
p6
I0
I1
tp7
Rp8
(I3
S'<'
p9
NNNI-1
I-1
I0
tp10
bS'fW<f)P\x07\xc0'
p11
tp12
Rp13
sS'pitch'
p14
g4
(g8
S'@\x9267\xa7e\xf1\xbf'
p15
tp16
Rp17
sS'y'
p18
F0.05984463737829069
sS'x'
p19
F-0.12079580315476358
sS'z'
p20
F-0.13050229785225928
sS'roll'
p21
g4
(g8
S'\xd36\xbf\xf6U\x11\xfc?'
p22
tp23
Rp24
ss.(dp0
S'psm_data/left0.jpg'
p1
(dp2
S'yaw'
p3
cnumpy.core.multiarray
scalar
p4
(cnumpy
dtype
p5
(S'f8'
p6
I0
I1
tp7
Rp8
(I3
S'<'
p9
NNNI-1
I-1
I0
tp10
bS'z\x17u\xa5b\x11\x07\xc0'
p11
tp12
Rp13
sS'pitch'
p14
g4
(g8
S'(*vxO\x18\xf2\xbf'
p15
tp16
Rp17
sS'y'
p18
F0.06249485834408564
sS'x'
p19
F-0.1315843624395176
sS'z'
p20
F-0.12997379676502163
sS'roll'
p21
g4
(g8
S'Tf\xe2\xbb\x9a\x88\xfb?'
p22
tp23
Rp24
ss.(dp0
S'psm_data/left0.jpg'
p1
(dp2
S'yaw'
p3
cnumpy.core.multiarray
scalar
p4
(cnumpy
dtype
p5
(S'f8'
p6
I0
I1
tp7
Rp8
(I3
S'<'
p9
NNNI-1
I-1
I0
tp10
bS'j\x85\xb75\xe8\xbd\x06\xc0'
p11
tp12
Rp13
sS'pitch'
p14
g4
(g8
S'\xd4\xfa\xef\xb8\xb1\xc0\xf2\xbf'
p15
tp16
Rp17
sS'y'
p18
F0.06480073114758014
sS'x'
p19
F-0.1422241849693329
sS'z'
p20
F-0.12840906645062686
sS'roll'
p21
g4
(g8
S'\x1f3s\x94\xce\xe0\xfa?'
p22
tp23
Rp24
ss.(dp0
S'psm_data/left0.jpg'
p1
(dp2
S'yaw'
p3
cnumpy.core.multiarray
scalar
p4
(cnumpy
dtype
p5
(S'f8'
p6
I0
I1
tp7
Rp8
(I3
S'<'
p9
NNNI-1
I-1
I0
tp10
bS'\xae\xc9\xcd\xd2\x08i\x06\xc0'
p11
tp12
Rp13
sS'pitch'
p14
g4
(g8
S'\xb9}\xea\xc0\x13Q\xf3\xbf'
p15
tp16
Rp17
sS'y'
p18
F0.06705118321962014
sS'x'
p19
F-0.15171951070558357
sS'z'
p20
F-0.1268427398655693
sS'roll'
p21
g4
(g8
S'I\xcf\x8a\xb2C1\xfa?'
p22
tp23
Rp24
ss.(dp0
S'psm_data/left0.jpg'
p1
(dp2
S'yaw'
p3
cnumpy.core.multiarray
scalar
p4
(cnumpy
dtype
p5
(S'f8'
p6
I0
I1
tp7
Rp8
(I3
S'<'
p9
NNNI-1
I-1
I0
tp10
bS'\x87F\x18\xa4E\xda\x05\xc0'
p11
tp12
Rp13
sS'pitch'
p14
g4
(g8
S'\xda\xc4\x83\x19s?\xf4\xbf'
p15
tp16
Rp17
sS'y'
p18
F0.06914910425859272
sS'x'
p19
F-0.16367243814807025
sS'z'
p20
F-0.12494211966928583
sS'roll'
p21
g4
(g8
S'_\xb1\xcf\xea\x1f\xd8\xf8?'
p22
tp23
Rp24
ss.