(dp0
S'psm_data/left0.jpg'
p1
(dp2
S'yaw'
p3
cnumpy.core.multiarray
scalar
p4
(cnumpy
dtype
p5
(S'f8'
p6
I0
I1
tp7
Rp8
(I3
S'<'
p9
NNNI-1
I-1
I0
tp10
bS'\xb4T\x08 \x08\x15\x08@'
p11
tp12
Rp13
sS'pitch'
p14
g4
(g8
S'\x94ac\xbb\xdaB\xce\xbf'
p15
tp16
Rp17
sS'y'
p18
F0.02328504459852686
sS'x'
p19
F-0.1310655849633241
sS'z'
p20
F-0.12382729557849649
sS'roll'
p21
g4
(g8
S'\xa9\xfdR\xe1-\xe7\x08\xc0'
p22
tp23
Rp24
ss.(dp0
S'psm_data/left1.jpg'
p1
(dp2
S'yaw'
p3
cnumpy.core.multiarray
scalar
p4
(cnumpy
dtype
p5
(S'f8'
p6
I0
I1
tp7
Rp8
(I3
S'<'
p9
NNNI-1
I-1
I0
tp10
bS'\x88\xb6\xd2_\xce\xab\x08@'
p11
tp12
Rp13
sS'pitch'
p14
g4
(g8
S'\x9a0\x14M\xc7Z\xd1\xbf'
p15
tp16
Rp17
sS'y'
p18
F0.025807053792766665
sS'x'
p19
F-0.1410711545933099
sS'z'
p20
F-0.12261006821826372
sS'roll'
p21
g4
(g8
S'\xfc\xc6\xa1\xb5Q\xc6\x08@'
p22
tp23
Rp24
ss.(dp0
S'psm_data/left2.jpg'
p1
(dp2
S'yaw'
p3
cnumpy.core.multiarray
scalar
p4
(cnumpy
dtype
p5
(S'f8'
p6
I0
I1
tp7
Rp8
(I3
S'<'
p9
NNNI-1
I-1
I0
tp10
bS'zE\xd1\x00{\x90\x08@'
p11
tp12
Rp13
sS'pitch'
p14
g4
(g8
S'yQn\xff\x8e\x1f\xd4\xbf'
p15
tp16
Rp17
sS'y'
p18
F0.02762377198576813
sS'x'
p19
F-0.15111678469682607
sS'z'
p20
F-0.12077359287830851
sS'roll'
p21
g4
(g8
S'\x07\xb9\x80\xa8U\xd3\x08@'
p22
tp23
Rp24
ss.(dp0
S'psm_data/left3.jpg'
p1
(dp2
S'yaw'
p3
cnumpy.core.multiarray
scalar
p4
(cnumpy
dtype
p5
(S'f8'
p6
I0
I1
tp7
Rp8
(I3
S'<'
p9
NNNI-1
I-1
I0
tp10
bS'cZ\xeb!1\xbf\x06@'
p11
tp12
Rp13
sS'pitch'
p14
g4
(g8
S'\xf3\x15\x85\xc0\x12\x1d\xca\xbf'
p15
tp16
Rp17
sS'y'
p18
F0.03267105412360606
sS'x'
p19
F-0.1611430171162358
sS'z'
p20
F-0.11971342195385429
sS'roll'
p21
g4
(g8
S'\xd2\x9a\xaa\x07\xb5\xc3\x06\xc0'
p22
tp23
Rp24
ss.(dp0
S'psm_data/left4.jpg'
p1
(dp2
S'yaw'
p3
cnumpy.core.multiarray
scalar
p4
(cnumpy
dtype
p5
(S'f8'
p6
I0
I1
tp7
Rp8
(I3
S'<'
p9
NNNI-1
I-1
I0
tp10
bS'4e\x8at\xeek\x08@'
p11
tp12
Rp13
sS'pitch'
p14
g4
(g8
S'\x7f\xfa\x84\xd7jR\xd2\xbf'
p15
tp16
Rp17
sS'y'
p18
F0.03283778960252496
sS'x'
p19
F-0.17278915336022024
sS'z'
p20
F-0.11732702535499437
sS'roll'
p21
g4
(g8
S'\x0f\xb7\xfei\xb5\xc2\x08\xc0'
p22
tp23
Rp24
ss.(dp0
S'psm_data/left5.jpg'
p1
(dp2
S'yaw'
p3
cnumpy.core.multiarray
scalar
p4
(cnumpy
dtype
p5
(S'f8'
p6
I0
I1
tp7
Rp8
(I3
S'<'
p9
NNNI-1
I-1
I0
tp10
bS'\xd1\x13\x17\xe5\x13\x1b\x08@'
p11
tp12
Rp13
sS'pitch'
p14
g4
(g8
S'\xb8\xa2\x0btJO\xc0\xbf'
p15
tp16
Rp17
sS'y'
p18
F0.03381662496176456
sS'x'
p19
F-0.12788529950152078
sS'z'
p20
F-0.1237436468591858
sS'roll'
p21
g4
(g8
S'l\x02\xa2\xad\x9d\xe9\x08\xc0'
p22
tp23
Rp24
ss.(dp0
S'psm_data/left6.jpg'
p1
(dp2
S'yaw'
p3
cnumpy.core.multiarray
scalar
p4
(cnumpy
dtype
p5
(S'f8'
p6
I0
I1
tp7
Rp8
(I3
S'<'
p9
NNNI-1
I-1
I0
tp10
bS'\xd0\x10\xa1\x8b\xcb:\x08@'
p11
tp12
Rp13
sS'pitch'
p14
g4
(g8
S'3\x80@\xe2\xc4\x0e\xc5\xbf'
p15
tp16
Rp17
sS'y'
p18
F0.03674426313590799
sS'x'
p19
F-0.13819329569068858
sS'z'
p20
F-0.1230888412549557
sS'roll'
p21
g4
(g8
S'8\xf2>\x95\x99\x14\t\xc0'
p22
tp23
Rp24
ss.(dp0
S'psm_data/left7.jpg'
p1
(dp2
S'yaw'
p3
cnumpy.core.multiarray
scalar
p4
(cnumpy
dtype
p5
(S'f8'
p6
I0
I1
tp7
Rp8
(I3
S'<'
p9
NNNI-1
I-1
I0
tp10
bS'\xaf\xff\xbd\xec \x98\x06@'
p11
tp12
Rp13
sS'pitch'
p14
g4
(g8
S'v\xcf\xb8\xfa\x8c\xed\xcb\xbf'
p15
tp16
Rp17
sS'y'
p18
F0.04081911382531516
sS'x'
p19
F-0.1475204015923374
sS'z'
p20
F-0.12019571323832672
sS'roll'
p21
g4
(g8
S'\x84\x15\xd5-\x8c\x8b\x07\xc0'
p22
tp23
Rp24
ss.(dp0
S'psm_data/left8.jpg'
p1
(dp2
S'yaw'
p3
cnumpy.core.multiarray
scalar
p4
(cnumpy
dtype
p5
(S'f8'
p6
I0
I1
tp7
Rp8
(I3
S'<'
p9
NNNI-1
I-1
I0
tp10
bS'\x1f\xe6\xc5e\x9cK\x06@'
p11
tp12
Rp13
sS'pitch'
p14
g4
(g8
S'A\xc2\xef?@\xe7\xd0\xbf'
p15
tp16
Rp17
sS'y'
p18
F0.04307740359059326
sS'x'
p19
F-0.157390496437055
sS'z'
p20
F-0.12072081397091346
sS'roll'
p21
g4
(g8
S'k\xc9\xb3u\x8f_\x07\xc0'
p22
tp23
Rp24
ss.(dp0
S'psm_data/left9.jpg'
p1
(dp2
S'yaw'
p3
cnumpy.core.multiarray
scalar
p4
(cnumpy
dtype
p5
(S'f8'
p6
I0
I1
tp7
Rp8
(I3
S'<'
p9
NNNI-1
I-1
I0
tp10
bS'q\x88\x91f\xac\x92\x06@'
p11
tp12
Rp13
sS'pitch'
p14
g4
(g8
S'\xb5\x81\x0e:\x7f\x13\xd4\xbf'
p15
tp16
Rp17
sS'y'
p18
F0.04526027055605592
sS'x'
p19
F-0.16842909996056749
sS'z'
p20
F-0.11819059254053009
sS'roll'
p21
g4
(g8
S'\x0c\x12~~\x82\xa8\x07\xc0'
p22
tp23
Rp24
ss.(dp0
S'psm_data/left10.jpg'
p1
(dp2
S'yaw'
p3
cnumpy.core.multiarray
scalar
p4
(cnumpy
dtype
p5
(S'f8'
p6
I0
I1
tp7
Rp8
(I3
S'<'
p9
NNNI-1
I-1
I0
tp10
bS'\x18gZ\xc8p/\x07@'
p11
tp12
Rp13
sS'pitch'
p14
g4
(g8
S'\xe3\xbc\x04\x124M\xc4\xbf'
p15
tp16
Rp17
sS'y'
p18
F0.04550500439974179
sS'x'
p19
F-0.12437331872885227
sS'z'
p20
F-0.12378661533800156
sS'roll'
p21
g4
(g8
S'}\x05dA~\xee\x08\xc0'
p22
tp23
Rp24
ss.(dp0
S'psm_data/left11.jpg'
p1
(dp2
S'yaw'
p3
cnumpy.core.multiarray
scalar
p4
(cnumpy
dtype
p5
(S'f8'
p6
I0
I1
tp7
Rp8
(I3
S'<'
p9
NNNI-1
I-1
I0
tp10
bS'\xef\x13\rl9\xd1\x06@'
p11
tp12
Rp13
sS'pitch'
p14
g4
(g8
S'\xdd\xab\xc7E\x0e\x94\xcb\xbf'
p15
tp16
Rp17
sS'y'
p18
F0.048517455867456205
sS'x'
p19
F-0.13635829014112888
sS'z'
p20
F-0.1210616440187861
sS'roll'
p21
g4
(g8
S'\xe6\xdb\x0e\xe5\x9d\x8b\x08\xc0'
p22
tp23
Rp24
ss.(dp0
S'psm_data/left12.jpg'
p1
(dp2
S'yaw'
p3
cnumpy.core.multiarray
scalar
p4
(cnumpy
dtype
p5
(S'f8'
p6
I0
I1
tp7
Rp8
(I3
S'<'
p9
NNNI-1
I-1
I0
tp10
bS'\xb5\xb7\x00\x1bE\x04\x08@'
p11
tp12
Rp13
sS'pitch'
p14
g4
(g8
S'\x1e\xedX\x12\x13.\xce\xbf'
p15
tp16
Rp17
sS'y'
p18
F0.05066776617862402
sS'x'
p19
F-0.14679974666569962
sS'z'
p20
F-0.11958849379905793
sS'roll'
p21
g4
(g8
S'w?\x9da\xfc\x96\x08@'
p22
tp23
Rp24
ss.(dp0
S'psm_data/left13.jpg'
p1
(dp2
S'yaw'
p3
cnumpy.core.multiarray
scalar
p4
(cnumpy
dtype
p5
(S'f8'
p6
I0
I1
tp7
Rp8
(I3
S'<'
p9
NNNI-1
I-1
I0
tp10
bS'\xe5\xed\n\t\xeb\xcf\x05@'
p11
tp12
Rp13
sS'pitch'
p14
g4
(g8
S'\x9d\x0e\x82\xaf\xf3?\xd2\xbf'
p15
tp16
Rp17
sS'y'
p18
F0.05296124093161758
sS'x'
p19
F-0.15771192949975404
sS'z'
p20
F-0.11867166888300856
sS'roll'
p21
g4
(g8
S"\xa4\x9a'M\x12`\x07\xc0"
p22
tp23
Rp24
ss.(dp0
S'psm_data/left14.jpg'
p1
(dp2
S'yaw'
p3
cnumpy.core.multiarray
scalar
p4
(cnumpy
dtype
p5
(S'f8'
p6
I0
I1
tp7
Rp8
(I3
S'<'
p9
NNNI-1
I-1
I0
tp10
bS'\xa7\xce\x9b}\xe2\n\x06@'
p11
tp12
Rp13
sS'pitch'
p14
g4
(g8
S'\xca"\xd2\xeb*f\xd4\xbf'
p15
tp16
Rp17
sS'y'
p18
F0.056532328927091285
sS'x'
p19
F-0.16701593353745794
sS'z'
p20
F-0.11737968482972644
sS'roll'
p21
g4
(g8
S'\xac\xcei\xdd\xe5\x9e\x07\xc0'
p22
tp23
Rp24
ss.(dp0
S'psm_data/left15.jpg'
p1
(dp2
S'yaw'
p3
cnumpy.core.multiarray
scalar
p4
(cnumpy
dtype
p5
(S'f8'
p6
I0
I1
tp7
Rp8
(I3
S'<'
p9
NNNI-1
I-1
I0
tp10
bS'\x81\xf7\xc5\xcf\x08]\x07@'
p11
tp12
Rp13
sS'pitch'
p14
g4
(g8
S'\xa5C\x94\xa7\x9aF\xc4\xbf'
p15
tp16
Rp17
sS'y'
p18
F0.056885056230165425
sS'x'
p19
F-0.12367664677246332
sS'z'
p20
F-0.12267998861703178
sS'roll'
p21
g4
(g8
S'\x0e\r:\x1fH\x8f\x08@'
p22
tp23
Rp24
ss.(dp0
S'psm_data/left16.jpg'
p1
(dp2
S'yaw'
p3
cnumpy.core.multiarray
scalar
p4
(cnumpy
dtype
p5
(S'f8'
p6
I0
I1
tp7
Rp8
(I3
S'<'
p9
NNNI-1
I-1
I0
tp10
bS'~V\xf8Lp\x89\x04@'
p11
tp12
Rp13
sS'pitch'
p14
g4
(g8
S'\rk\x97\xbe\xd8\x94\xca\xbf'
p15
tp16
Rp17
sS'y'
p18
F0.06052320267289214
sS'x'
p19
F-0.13166460658795243
sS'z'
p20
F-0.12186389821719579
sS'roll'
p21
g4
(g8
S'\xea\xff%\xc7\xf5\x0e\x07\xc0'
p22
tp23
Rp24
ss.(dp0
S'psm_data/left17.jpg'
p1
(dp2
S'yaw'
p3
cnumpy.core.multiarray
scalar
p4
(cnumpy
dtype
p5
(S'f8'
p6
I0
I1
tp7
Rp8
(I3
S'<'
p9
NNNI-1
I-1
I0
tp10
bS'\xa0\xe0G\x84\xbd\x83\x05@'
p11
tp12
Rp13
sS'pitch'
p14
g4
(g8
S'\xf8\xf6J\xfb\x0fQ\xd0\xbf'
p15
tp16
Rp17
sS'y'
p18
F0.06187253781593699
sS'x'
p19
F-0.1428708111548799
sS'z'
p20
F-0.12070140507750675
sS'roll'
p21
g4
(g8
S'?\xbc\x9cY\x00\xd1\x07\xc0'
p22
tp23
Rp24
ss.(dp0
S'psm_data/left18.jpg'
p1
(dp2
S'yaw'
p3
cnumpy.core.multiarray
scalar
p4
(cnumpy
dtype
p5
(S'f8'
p6
I0
I1
tp7
Rp8
(I3
S'<'
p9
NNNI-1
I-1
I0
tp10
bS'\x8c\x93}\x9cvp\x06@'
p11
tp12
Rp13
sS'pitch'
p14
g4
(g8
S'\x82\xe0~\xf6)G\xd3\xbf'
p15
tp16
Rp17
sS'y'
p18
F0.06451075698368373
sS'x'
p19
F-0.1549421232793973
sS'z'
p20
F-0.11753773267792607
sS'roll'
p21
g4
(g8
S'\xa2\x0f\x95\xf60\xa5\x08\xc0'
p22
tp23
Rp24
ss.(dp0
S'psm_data/left19.jpg'
p1
(dp2
S'yaw'
p3
cnumpy.core.multiarray
scalar
p4
(cnumpy
dtype
p5
(S'f8'
p6
I0
I1
tp7
Rp8
(I3
S'<'
p9
NNNI-1
I-1
I0
tp10
bS'E\xaaax\x1a3\x06@'
p11
tp12
Rp13
sS'pitch'
p14
g4
(g8
S'\\P\x1f\xc1)\xff\xd5\xbf'
p15
tp16
Rp17
sS'y'
p18
F0.066205547747232
sS'x'
p19
F-0.16466757454620135
sS'z'
p20
F-0.11766307947865863
sS'roll'
p21
g4
(g8
S'\xf7-f\xf6\xceg\x08\xc0'
p22
tp23
Rp24
ss.(dp0
S'psm_data/left20.jpg'
p1
(dp2
S'yaw'
p3
cnumpy.core.multiarray
scalar
p4
(cnumpy
dtype
p5
(S'f8'
p6
I0
I1
tp7
Rp8
(I3
S'<'
p9
NNNI-1
I-1
I0
tp10
bS'>\x06~l\xa5\x8a\x05@'
p11
tp12
Rp13
sS'pitch'
p14
g4
(g8
S'\xc8\x96/&]\xdd\xcb\xbf'
p15
tp16
Rp17
sS'y'
p18
F0.06761461404776874
sS'x'
p19
F-0.11863596595678541
sS'z'
p20
F-0.12378687449971068
sS'roll'
p21
g4
(g8
S'\x19\x82\tE\xb8\xee\x08\xc0'
p22
tp23
Rp24
ss.(dp0
S'psm_data/left21.jpg'
p1
(dp2
S'yaw'
p3
cnumpy.core.multiarray
scalar
p4
(cnumpy
dtype
p5
(S'f8'
p6
I0
I1
tp7
Rp8
(I3
S'<'
p9
NNNI-1
I-1
I0
tp10
bS'}\xf0C\xb6/\xeb\x03@'
p11
tp12
Rp13
sS'pitch'
p14
g4
(g8
S'\x16\xef\xe6\xa1\xcd\x1f\xd0\xbf'
p15
tp16
Rp17
sS'y'
p18
F0.07085937013611017
sS'x'
p19
F-0.129077676603974
sS'z'
p20
F-0.12238701921465281
sS'roll'
p21
g4
(g8
S'\x91V\xed\x8c\x84N\x07\xc0'
p22
tp23
Rp24
ss.(dp0
S'psm_data/left22.jpg'
p1
(dp2
S'yaw'
p3
cnumpy.core.multiarray
scalar
p4
(cnumpy
dtype
p5
(S'f8'
p6
I0
I1
tp7
Rp8
(I3
S'<'
p9
NNNI-1
I-1
I0
tp10
bS'j\xbf\x1d\xa5x\xc6\x04@'
p11
tp12
Rp13
sS'pitch'
p14
g4
(g8
S'y\xdc\xb4sPh\xd3\xbf'
p15
tp16
Rp17
sS'y'
p18
F0.07319383229643209
sS'x'
p19
F-0.14060384724566122
sS'z'
p20
F-0.12027791737298137
sS'roll'
p21
g4
(g8
S'\xb5v\x99q?\xed\x07\xc0'
p22
tp23
Rp24
ss.(dp0
S'psm_data/left23.jpg'
p1
(dp2
S'yaw'
p3
cnumpy.core.multiarray
scalar
p4
(cnumpy
dtype
p5
(S'f8'
p6
I0
I1
tp7
Rp8
(I3
S'<'
p9
NNNI-1
I-1
I0
tp10
bS'\\f\x88l\xf6B\x05@'
p11
tp12
Rp13
sS'pitch'
p14
g4
(g8
S'\xfb\xf3O\x17\xa5\xc6\xd5\xbf'
p15
tp16
Rp17
sS'y'
p18
F0.07440839818018295
sS'x'
p19
F-0.15159328818365234
sS'z'
p20
F-0.11926101910754569
sS'roll'
p21
g4
(g8
S'p\xc3$Q}:\x08\xc0'
p22
tp23
Rp24
ss.(dp0
S'psm_data/left24.jpg'
p1
(dp2
S'yaw'
p3
cnumpy.core.multiarray
scalar
p4
(cnumpy
dtype
p5
(S'f8'
p6
I0
I1
tp7
Rp8
(I3
S'<'
p9
NNNI-1
I-1
I0
tp10
bS'T\xdc\xc1\xe6\xb7\x8e\x04@'
p11
tp12
Rp13
sS'pitch'
p14
g4
(g8
S'\xafe\xe3\x00\xb8\xba\xd7\xbf'
p15
tp16
Rp17
sS'y'
p18
F0.07728648299331743
sS'x'
p19
F-0.16164729208497505
sS'z'
p20
F-0.11687147163040672
sS'roll'
p21
g4
(g8
S'\x1f<\xd98Ko\x07\xc0'
p22
tp23
Rp24
ss.