(dp0
S'psm_data/left0.jpg'
p1
(dp2
S'yaw'
p3
cnumpy.core.multiarray
scalar
p4
(cnumpy
dtype
p5
(S'f8'
p6
I0
I1
tp7
Rp8
(I3
S'<'
p9
NNNI-1
I-1
I0
tp10
bS'\x15\x9d7\xe2\x01\xcd\x03\xc0'
p11
tp12
Rp13
sS'pitch'
p14
g4
(g8
S'\x03\x88\xeb\x12\xf9U\xef\xbf'
p15
tp16
Rp17
sS'y'
p18
F0.021430101405955197
sS'x'
p19
F-0.12649944358489557
sS'z'
p20
F-0.1288645925410359
sS'roll'
p21
g4
(g8
S'\rlV\x16:\xb9\xfb?'
p22
tp23
Rp24
ss.(dp0
S'psm_data/left1.jpg'
p1
(dp2
S'yaw'
p3
cnumpy.core.multiarray
scalar
p4
(cnumpy
dtype
p5
(S'f8'
p6
I0
I1
tp7
Rp8
(I3
S'<'
p9
NNNI-1
I-1
I0
tp10
bS'\x8b\x0bb\xcd]Z\x03\xc0'
p11
tp12
Rp13
sS'pitch'
p14
g4
(g8
S'ri\r\x91\xc3\x19\xf0\xbf'
p15
tp16
Rp17
sS'y'
p18
F0.02393146046211728
sS'x'
p19
F-0.13743356768077625
sS'z'
p20
F-0.12796996345769437
sS'roll'
p21
g4
(g8
S'\xb4\x82\x9e\xf9\xf3\xa6\xfa?'
p22
tp23
Rp24
ss.(dp0
S'psm_data/left2.jpg'
p1
(dp2
S'yaw'
p3
cnumpy.core.multiarray
scalar
p4
(cnumpy
dtype
p5
(S'f8'
p6
I0
I1
tp7
Rp8
(I3
S'<'
p9
NNNI-1
I-1
I0
tp10
bS'4N\x8aD\x8d\x10\x03\xc0'
p11
tp12
Rp13
sS'pitch'
p14
g4
(g8
S'\xcbj\xae\xdb\xf9\x92\xf0\xbf'
p15
tp16
Rp17
sS'y'
p18
F0.026126267084436754
sS'x'
p19
F-0.14760386376223006
sS'z'
p20
F-0.12708247841700215
sS'roll'
p21
g4
(g8
S'\x7f\x03\rq\xa7\xd0\xf9?'
p22
tp23
Rp24
ss.(dp0
S'psm_data/left3.jpg'
p1
(dp2
S'yaw'
p3
cnumpy.core.multiarray
scalar
p4
(cnumpy
dtype
p5
(S'f8'
p6
I0
I1
tp7
Rp8
(I3
S'<'
p9
NNNI-1
I-1
I0
tp10
bS'\xd5\xf6X\x18\x81\xba\x02\xc0'
p11
tp12
Rp13
sS'pitch'
p14
g4
(g8
S'\x97\xc6\xed\x1d\xfe\xef\xf0\xbf'
p15
tp16
Rp17
sS'y'
p18
F0.028849821090060165
sS'x'
p19
F-0.15773753117513797
sS'z'
p20
F-0.1263770748435055
sS'roll'
p21
g4
(g8
S'\xb9$\xf9EH\xe9\xf8?'
p22
tp23
Rp24
ss.(dp0
S'psm_data/left4.jpg'
p1
(dp2
S'yaw'
p3
cnumpy.core.multiarray
scalar
p4
(cnumpy
dtype
p5
(S'f8'
p6
I0
I1
tp7
Rp8
(I3
S'<'
p9
NNNI-1
I-1
I0
tp10
bS';IY\xea\x8d\x12\x02\xc0'
p11
tp12
Rp13
sS'pitch'
p14
g4
(g8
S'\xc5#%\xe1##\xf1\xbf'
p15
tp16
Rp17
sS'y'
p18
F0.03157538605089076
sS'x'
p19
F-0.16931910661004054
sS'z'
p20
F-0.12433773371300823
sS'roll'
p21
g4
(g8
S'\xd0\x81/\x9b}\x82\xf7?'
p22
tp23
Rp24
ss.(dp0
S'psm_data/left5.jpg'
p1
(dp2
S'yaw'
p3
cnumpy.core.multiarray
scalar
p4
(cnumpy
dtype
p5
(S'f8'
p6
I0
I1
tp7
Rp8
(I3
S'<'
p9
NNNI-1
I-1
I0
tp10
bS'\x0c\x84\x12\x8bSn\x04\xc0'
p11
tp12
Rp13
sS'pitch'
p14
g4
(g8
S'XW\xed\x8f6B\xef\xbf'
p15
tp16
Rp17
sS'y'
p18
F0.03228942557255003
sS'x'
p19
F-0.12463099670821491
sS'z'
p20
F-0.12924976828940615
sS'roll'
p21
g4
(g8
S'\xf6\x80\x8eG\xc9\xaa\xfb?'
p22
tp23
Rp24
ss.(dp0
S'psm_data/left6.jpg'
p1
(dp2
S'yaw'
p3
cnumpy.core.multiarray
scalar
p4
(cnumpy
dtype
p5
(S'f8'
p6
I0
I1
tp7
Rp8
(I3
S'<'
p9
NNNI-1
I-1
I0
tp10
bS'q\x97\x0fHd\xd0\x03\xc0'
p11
tp12
Rp13
sS'pitch'
p14
g4
(g8
S'\x9c.=-\xf2\xbb\xef\xbf'
p15
tp16
Rp17
sS'y'
p18
F0.03459081687348649
sS'x'
p19
F-0.13469000576526027
sS'z'
p20
F-0.12894182596358617
sS'roll'
p21
g4
(g8
S'3s\xc9\x02P\x80\xfa?'
p22
tp23
Rp24
ss.(dp0
S'psm_data/left7.jpg'
p1
(dp2
S'yaw'
p3
cnumpy.core.multiarray
scalar
p4
(cnumpy
dtype
p5
(S'f8'
p6
I0
I1
tp7
Rp8
(I3
S'<'
p9
NNNI-1
I-1
I0
tp10
bS'%`\x9b\x1cT/\x04\xc0'
p11
tp12
Rp13
sS'pitch'
p14
g4
(g8
S'\x84Sp>\xbd\x07\xf1\xbf'
p15
tp16
Rp17
sS'y'
p18
F0.03680836121216439
sS'x'
p19
F-0.14545632291484906
sS'z'
p20
F-0.12702061805955783
sS'roll'
p21
g4
(g8
S'\xa6\xdf\x99\xfeE\x80\xfa?'
p22
tp23
Rp24
ss.(dp0
S'psm_data/left8.jpg'
p1
(dp2
S'yaw'
p3
cnumpy.core.multiarray
scalar
p4
(cnumpy
dtype
p5
(S'f8'
p6
I0
I1
tp7
Rp8
(I3
S'<'
p9
NNNI-1
I-1
I0
tp10
bS'_\xa0i&\t\xce\x03\xc0'
p11
tp12
Rp13
sS'pitch'
p14
g4
(g8
S'T\xba7\xf2n|\xf1\xbf'
p15
tp16
Rp17
sS'y'
p18
F0.039289088254086516
sS'x'
p19
F-0.15557514062147815
sS'z'
p20
F-0.12550756369253072
sS'roll'
p21
g4
(g8
S'\x0cuo\xfd\xbe\x94\xf9?'
p22
tp23
Rp24
ss.(dp0
S'psm_data/left9.jpg'
p1
(dp2
S'yaw'
p3
cnumpy.core.multiarray
scalar
p4
(cnumpy
dtype
p5
(S'f8'
p6
I0
I1
tp7
Rp8
(I3
S'<'
p9
NNNI-1
I-1
I0
tp10
bS'a\x93\x12\xb6WJ\x03\xc0'
p11
tp12
Rp13
sS'pitch'
p14
g4
(g8
S'\x0b\x19\xbb\xc2\x83\xf4\xf1\xbf'
p15
tp16
Rp17
sS'y'
p18
F0.041315935383804764
sS'x'
p19
F-0.16711165367501352
sS'z'
p20
F-0.12336271882658317
sS'roll'
p21
g4
(g8
S'X\x85\x18oLt\xf8?'
p22
tp23
Rp24
ss.(dp0
S'psm_data/left10.jpg'
p1
(dp2
S'yaw'
p3
cnumpy.core.multiarray
scalar
p4
(cnumpy
dtype
p5
(S'f8'
p6
I0
I1
tp7
Rp8
(I3
S'<'
p9
NNNI-1
I-1
I0
tp10
bS's\x80\x9f\x80\xb4\xc3\x04\xc0'
p11
tp12
Rp13
sS'pitch'
p14
g4
(g8
S'\xd3a\xbe\xae\xf1\x1c\xef\xbf'
p15
tp16
Rp17
sS'y'
p18
F0.041950578006242994
sS'x'
p19
F-0.12358789969987902
sS'z'
p20
F-0.1292998530577353
sS'roll'
p21
g4
(g8
S'\xbe\xc7\x9b\x01\rJ\xfb?'
p22
tp23
Rp24
ss.(dp0
S'psm_data/left11.jpg'
p1
(dp2
S'yaw'
p3
cnumpy.core.multiarray
scalar
p4
(cnumpy
dtype
p5
(S'f8'
p6
I0
I1
tp7
Rp8
(I3
S'<'
p9
NNNI-1
I-1
I0
tp10
bS'\xc6*\xf8\xcafV\x04\xc0'
p11
tp12
Rp13
sS'pitch'
p14
g4
(g8
S'\x95"\xf3\x83\x02\x0e\xf0\xbf'
p15
tp16
Rp17
sS'y'
p18
F0.045532232876400486
sS'x'
p19
F-0.1341156674098695
sS'z'
p20
F-0.1276749142423828
sS'roll'
p21
g4
(g8
S'\x15\xe0\xa3\xd5\xb6=\xfa?'
p22
tp23
Rp24
ss.(dp0
S'psm_data/left12.jpg'
p1
(dp2
S'yaw'
p3
cnumpy.core.multiarray
scalar
p4
(cnumpy
dtype
p5
(S'f8'
p6
I0
I1
tp7
Rp8
(I3
S'<'
p9
NNNI-1
I-1
I0
tp10
bS'\x04L\xb3r\xa0\xa3\x03\xc0'
p11
tp12
Rp13
sS'pitch'
p14
g4
(g8
S'\x11\x01\xa3\xf1\x12=\xf0\xbf'
p15
tp16
Rp17
sS'y'
p18
F0.046615271773926985
sS'x'
p19
F-0.14335249764796895
sS'z'
p20
F-0.12573312507123777
sS'roll'
p21
g4
(g8
S'8\x07\x14\xba\xda\x0c\xf9?'
p22
tp23
Rp24
ss.(dp0
S'psm_data/left13.jpg'
p1
(dp2
S'yaw'
p3
cnumpy.core.multiarray
scalar
p4
(cnumpy
dtype
p5
(S'f8'
p6
I0
I1
tp7
Rp8
(I3
S'<'
p9
NNNI-1
I-1
I0
tp10
bS'\xf3%,\x99\xa8;\x03\xc0'
p11
tp12
Rp13
sS'pitch'
p14
g4
(g8
S'\xe6\x82\xf8L\x93\x94\xf0\xbf'
p15
tp16
Rp17
sS'y'
p18
F0.050545089322326986
sS'x'
p19
F-0.15381665653314397
sS'z'
p20
F-0.1247735483097401
sS'roll'
p21
g4
(g8
S'\xa4K\xdd\xb3%\x08\xf8?'
p22
tp23
Rp24
ss.(dp0
S'psm_data/left14.jpg'
p1
(dp2
S'yaw'
p3
cnumpy.core.multiarray
scalar
p4
(cnumpy
dtype
p5
(S'f8'
p6
I0
I1
tp7
Rp8
(I3
S'<'
p9
NNNI-1
I-1
I0
tp10
bS'\xd2\xee\xb0\xe8|\xbd\x02\xc0'
p11
tp12
Rp13
sS'pitch'
p14
g4
(g8
S'\xaa\xb18\xde\x12\xd8\xf0\xbf'
p15
tp16
Rp17
sS'y'
p18
F0.05179105989613563
sS'x'
p19
F-0.16411874043566355
sS'z'
p20
F-0.1237707095631752
sS'roll'
p21
g4
(g8
S'\xa9sm\x85h\x1b\xf7?'
p22
tp23
Rp24
ss.(dp0
S'psm_data/left15.jpg'
p1
(dp2
S'yaw'
p3
cnumpy.core.multiarray
scalar
p4
(cnumpy
dtype
p5
(S'f8'
p6
I0
I1
tp7
Rp8
(I3
S'<'
p9
NNNI-1
I-1
I0
tp10
bS'(\xbf\xb0\x1a\x19\xe7\x03\xc0'
p11
tp12
Rp13
sS'pitch'
p14
g4
(g8
S'\x08\xb6\xcaF\x90(\xec\xbf'
p15
tp16
Rp17
sS'y'
p18
F0.05359589822253551
sS'x'
p19
F-0.12019252579470734
sS'z'
p20
F-0.12977030423810937
sS'roll'
p21
g4
(g8
S"\xad\xe4.'m\x8a\xf9?"
p22
tp23
Rp24
ss.(dp0
S'psm_data/left16.jpg'
p1
(dp2
S'yaw'
p3
cnumpy.core.multiarray
scalar
p4
(cnumpy
dtype
p5
(S'f8'
p6
I0
I1
tp7
Rp8
(I3
S'<'
p9
NNNI-1
I-1
I0
tp10
bS'\x9a\xed\xb13\xbf\xa0\x03\xc0'
p11
tp12
Rp13
sS'pitch'
p14
g4
(g8
S'.(c\x8b~9\xed\xbf'
p15
tp16
Rp17
sS'y'
p18
F0.05599818868443201
sS'x'
p19
F-0.13004767084485055
sS'z'
p20
F-0.12870611219133865
sS'roll'
p21
g4
(g8
S'\x01\xb0\xc1\xae\x07\xcd\xf8?'
p22
tp23
Rp24
ss.(dp0
S'psm_data/left17.jpg'
p1
(dp2
S'yaw'
p3
cnumpy.core.multiarray
scalar
p4
(cnumpy
dtype
p5
(S'f8'
p6
I0
I1
tp7
Rp8
(I3
S'<'
p9
NNNI-1
I-1
I0
tp10
bS'\xddNi\x88\x1bJ\x03\xc0'
p11
tp12
Rp13
sS'pitch'
p14
g4
(g8
S'xz\xacu\x04K\xee\xbf'
p15
tp16
Rp17
sS'y'
p18
F0.058109358254036604
sS'x'
p19
F-0.14047493429109767
sS'z'
p20
F-0.12690816383147105
sS'roll'
p21
g4
(g8
S';\xa6\xd4$\xe2\xf8\xf7?'
p22
tp23
Rp24
ss.(dp0
S'psm_data/left18.jpg'
p1
(dp2
S'yaw'
p3
cnumpy.core.multiarray
scalar
p4
(cnumpy
dtype
p5
(S'f8'
p6
I0
I1
tp7
Rp8
(I3
S'<'
p9
NNNI-1
I-1
I0
tp10
bS'<\xd7\xc4\xca(\xea\x02\xc0'
p11
tp12
Rp13
sS'pitch'
p14
g4
(g8
S'\x8dDhp\x8b\x10\xef\xbf'
p15
tp16
Rp17
sS'y'
p18
F0.06059670248405051
sS'x'
p19
F-0.15068793133757477
sS'z'
p20
F-0.12558243367391334
sS'roll'
p21
g4
(g8
S'\x89\xe3r\xdfD\x1d\xf7?'
p22
tp23
Rp24
ss.(dp0
S'psm_data/left19.jpg'
p1
(dp2
S'yaw'
p3
cnumpy.core.multiarray
scalar
p4
(cnumpy
dtype
p5
(S'f8'
p6
I0
I1
tp7
Rp8
(I3
S'<'
p9
NNNI-1
I-1
I0
tp10
bS'\x01p-%\xe5\x95\x02\xc0'
p11
tp12
Rp13
sS'pitch'
p14
g4
(g8
S"'B*\xba\xb0\x02\xf0\xbf"
p15
tp16
Rp17
sS'y'
p18
F0.0631280921164815
sS'x'
p19
F-0.16156275489644684
sS'z'
p20
F-0.12402691299074597
sS'roll'
p21
g4
(g8
S'\x80\xdb\x15H\xa0I\xf6?'
p22
tp23
Rp24
ss.(dp0
S'psm_data/left20.jpg'
p1
(dp2
S'yaw'
p3
cnumpy.core.multiarray
scalar
p4
(cnumpy
dtype
p5
(S'f8'
p6
I0
I1
tp7
Rp8
(I3
S'<'
p9
NNNI-1
I-1
I0
tp10
bS'\x93\x19E\xff\xe9\xb6\x03\xc0'
p11
tp12
Rp13
sS'pitch'
p14
g4
(g8
S'\xfd\x81o\xd2\xbbr\xea\xbf'
p15
tp16
Rp17
sS'y'
p18
F0.06326285508210565
sS'x'
p19
F-0.1175104059846623
sS'z'
p20
F-0.1301496323915098
sS'roll'
p21
g4
(g8
S'\x80%\xf2\xef\xfd\xc0\xf8?'
p22
tp23
Rp24
ss.(dp0
S'psm_data/left21.jpg'
p1
(dp2
S'yaw'
p3
cnumpy.core.multiarray
scalar
p4
(cnumpy
dtype
p5
(S'f8'
p6
I0
I1
tp7
Rp8
(I3
S'<'
p9
NNNI-1
I-1
I0
tp10
bS'\xf2\xce\xf1\xce\xc7w\x03\xc0'
p11
tp12
Rp13
sS'pitch'
p14
g4
(g8
S'Z\x08\xbeL\xcb\xa6\xeb\xbf'
p15
tp16
Rp17
sS'y'
p18
F0.06597894580493868
sS'x'
p19
F-0.12761229984521483
sS'z'
p20
F-0.128570928349972
sS'roll'
p21
g4
(g8
S'8:\x90\xe3\xa8\x01\xf8?'
p22
tp23
Rp24
ss.(dp0
S'psm_data/left22.jpg'
p1
(dp2
S'yaw'
p3
cnumpy.core.multiarray
scalar
p4
(cnumpy
dtype
p5
(S'f8'
p6
I0
I1
tp7
Rp8
(I3
S'<'
p9
NNNI-1
I-1
I0
tp10
bS'\xdf\x96=ui\x1b\x03\xc0'
p11
tp12
Rp13
sS'pitch'
p14
g4
(g8
S'\xc5\xb85\x92\xe3\x9e\xec\xbf'
p15
tp16
Rp17
sS'y'
p18
F0.06861515044835459
sS'x'
p19
F-0.13855190376214405
sS'z'
p20
F-0.12711489614487834
sS'roll'
p21
g4
(g8
S'\xa8\x16W\x8b\xcd&\xf7?'
p22
tp23
Rp24
ss.(dp0
S'psm_data/left23.jpg'
p1
(dp2
S'yaw'
p3
cnumpy.core.multiarray
scalar
p4
(cnumpy
dtype
p5
(S'f8'
p6
I0
I1
tp7
Rp8
(I3
S'<'
p9
NNNI-1
I-1
I0
tp10
bS'#U\xfeT)\x9f\x02\xc0'
p11
tp12
Rp13
sS'pitch'
p14
g4
(g8
S'\xaf\xa3g\x0b\xad\xb6\xec\xbf'
p15
tp16
Rp17
sS'y'
p18
F0.07084038322517995
sS'x'
p19
F-0.1478600727070808
sS'z'
p20
F-0.1264579574314477
sS'roll'
p21
g4
(g8
S'<E\xb0\xeagR\xf6?'
p22
tp23
Rp24
ss.(dp0
S'psm_data/left24.jpg'
p1
(dp2
S'yaw'
p3
cnumpy.core.multiarray
scalar
p4
(cnumpy
dtype
p5
(S'f8'
p6
I0
I1
tp7
Rp8
(I3
S'<'
p9
NNNI-1
I-1
I0
tp10
bS'\x90\xc7A\x12\xe6@\x02\xc0'
p11
tp12
Rp13
sS'pitch'
p14
g4
(g8
S"{\x07'r\xba\x95\xed\xbf"
p15
tp16
Rp17
sS'y'
p18
F0.07412396449201508
sS'x'
p19
F-0.1591142015293188
sS'z'
p20
F-0.12403090323317228
sS'roll'
p21
g4
(g8
S'\xf6\xbf\x97\x9d\xc5a\xf5?'
p22
tp23
Rp24
ss.