(lp0
(cnumpy.core.multiarray
scalar
p1
(cnumpy
dtype
p2
(S'f8'
p3
I0
I1
tp4
Rp5
(I3
S'<'
p6
NNNI-1
I-1
I0
tp7
bS'p.\xf0\xbaE\xc6f\xbf'
p8
tp9
Rp10
g1
(g5
S'b\x82qB\x8bO]\xbf'
p11
tp12
Rp13
g1
(g5
S'\x04\xfeNJk\x07\x9f?'
p14
tp15
Rp16
tp17
a.