(lp0
(cnumpy.core.multiarray
scalar
p1
(cnumpy
dtype
p2
(S'f8'
p3
I0
I1
tp4
Rp5
(I3
S'<'
p6
NNNI-1
I-1
I0
tp7
bS'\xe3\x9d\xeeN~\x1f\x9a\xbf'
p8
tp9
Rp10
g1
(g5
S'b\xec\xac8\x81\xacm\xbf'
p11
tp12
Rp13
g1
(g5
S'S\x02\n\x1fx$\xc0?'
p14
tp15
Rp16
tp17
a.